
rtarget:     file format elf64-x86-64


Disassembly of section .init:

0000000000400bb0 <_init>:
  400bb0:	48 83 ec 08          	sub    $0x8,%rsp
  400bb4:	48 8b 05 3d 44 20 00 	mov    0x20443d(%rip),%rax        # 604ff8 <__gmon_start__>
  400bbb:	48 85 c0             	test   %rax,%rax
  400bbe:	74 05                	je     400bc5 <_init+0x15>
  400bc0:	e8 2b 02 00 00       	callq  400df0 <.plt.got>
  400bc5:	48 83 c4 08          	add    $0x8,%rsp
  400bc9:	c3                   	retq   

Disassembly of section .plt:

0000000000400bd0 <.plt>:
  400bd0:	ff 35 32 44 20 00    	pushq  0x204432(%rip)        # 605008 <_GLOBAL_OFFSET_TABLE_+0x8>
  400bd6:	ff 25 34 44 20 00    	jmpq   *0x204434(%rip)        # 605010 <_GLOBAL_OFFSET_TABLE_+0x10>
  400bdc:	0f 1f 40 00          	nopl   0x0(%rax)

0000000000400be0 <strcasecmp@plt>:
  400be0:	ff 25 32 44 20 00    	jmpq   *0x204432(%rip)        # 605018 <strcasecmp@GLIBC_2.2.5>
  400be6:	68 00 00 00 00       	pushq  $0x0
  400beb:	e9 e0 ff ff ff       	jmpq   400bd0 <.plt>

0000000000400bf0 <__errno_location@plt>:
  400bf0:	ff 25 2a 44 20 00    	jmpq   *0x20442a(%rip)        # 605020 <__errno_location@GLIBC_2.2.5>
  400bf6:	68 01 00 00 00       	pushq  $0x1
  400bfb:	e9 d0 ff ff ff       	jmpq   400bd0 <.plt>

0000000000400c00 <srandom@plt>:
  400c00:	ff 25 22 44 20 00    	jmpq   *0x204422(%rip)        # 605028 <srandom@GLIBC_2.2.5>
  400c06:	68 02 00 00 00       	pushq  $0x2
  400c0b:	e9 c0 ff ff ff       	jmpq   400bd0 <.plt>

0000000000400c10 <strncmp@plt>:
  400c10:	ff 25 1a 44 20 00    	jmpq   *0x20441a(%rip)        # 605030 <strncmp@GLIBC_2.2.5>
  400c16:	68 03 00 00 00       	pushq  $0x3
  400c1b:	e9 b0 ff ff ff       	jmpq   400bd0 <.plt>

0000000000400c20 <strcpy@plt>:
  400c20:	ff 25 12 44 20 00    	jmpq   *0x204412(%rip)        # 605038 <strcpy@GLIBC_2.2.5>
  400c26:	68 04 00 00 00       	pushq  $0x4
  400c2b:	e9 a0 ff ff ff       	jmpq   400bd0 <.plt>

0000000000400c30 <puts@plt>:
  400c30:	ff 25 0a 44 20 00    	jmpq   *0x20440a(%rip)        # 605040 <puts@GLIBC_2.2.5>
  400c36:	68 05 00 00 00       	pushq  $0x5
  400c3b:	e9 90 ff ff ff       	jmpq   400bd0 <.plt>

0000000000400c40 <write@plt>:
  400c40:	ff 25 02 44 20 00    	jmpq   *0x204402(%rip)        # 605048 <write@GLIBC_2.2.5>
  400c46:	68 06 00 00 00       	pushq  $0x6
  400c4b:	e9 80 ff ff ff       	jmpq   400bd0 <.plt>

0000000000400c50 <mmap@plt>:
  400c50:	ff 25 fa 43 20 00    	jmpq   *0x2043fa(%rip)        # 605050 <mmap@GLIBC_2.2.5>
  400c56:	68 07 00 00 00       	pushq  $0x7
  400c5b:	e9 70 ff ff ff       	jmpq   400bd0 <.plt>

0000000000400c60 <printf@plt>:
  400c60:	ff 25 f2 43 20 00    	jmpq   *0x2043f2(%rip)        # 605058 <printf@GLIBC_2.2.5>
  400c66:	68 08 00 00 00       	pushq  $0x8
  400c6b:	e9 60 ff ff ff       	jmpq   400bd0 <.plt>

0000000000400c70 <memset@plt>:
  400c70:	ff 25 ea 43 20 00    	jmpq   *0x2043ea(%rip)        # 605060 <memset@GLIBC_2.2.5>
  400c76:	68 09 00 00 00       	pushq  $0x9
  400c7b:	e9 50 ff ff ff       	jmpq   400bd0 <.plt>

0000000000400c80 <alarm@plt>:
  400c80:	ff 25 e2 43 20 00    	jmpq   *0x2043e2(%rip)        # 605068 <alarm@GLIBC_2.2.5>
  400c86:	68 0a 00 00 00       	pushq  $0xa
  400c8b:	e9 40 ff ff ff       	jmpq   400bd0 <.plt>

0000000000400c90 <close@plt>:
  400c90:	ff 25 da 43 20 00    	jmpq   *0x2043da(%rip)        # 605070 <close@GLIBC_2.2.5>
  400c96:	68 0b 00 00 00       	pushq  $0xb
  400c9b:	e9 30 ff ff ff       	jmpq   400bd0 <.plt>

0000000000400ca0 <read@plt>:
  400ca0:	ff 25 d2 43 20 00    	jmpq   *0x2043d2(%rip)        # 605078 <read@GLIBC_2.2.5>
  400ca6:	68 0c 00 00 00       	pushq  $0xc
  400cab:	e9 20 ff ff ff       	jmpq   400bd0 <.plt>

0000000000400cb0 <__libc_start_main@plt>:
  400cb0:	ff 25 ca 43 20 00    	jmpq   *0x2043ca(%rip)        # 605080 <__libc_start_main@GLIBC_2.2.5>
  400cb6:	68 0d 00 00 00       	pushq  $0xd
  400cbb:	e9 10 ff ff ff       	jmpq   400bd0 <.plt>

0000000000400cc0 <signal@plt>:
  400cc0:	ff 25 c2 43 20 00    	jmpq   *0x2043c2(%rip)        # 605088 <signal@GLIBC_2.2.5>
  400cc6:	68 0e 00 00 00       	pushq  $0xe
  400ccb:	e9 00 ff ff ff       	jmpq   400bd0 <.plt>

0000000000400cd0 <gethostbyname@plt>:
  400cd0:	ff 25 ba 43 20 00    	jmpq   *0x2043ba(%rip)        # 605090 <gethostbyname@GLIBC_2.2.5>
  400cd6:	68 0f 00 00 00       	pushq  $0xf
  400cdb:	e9 f0 fe ff ff       	jmpq   400bd0 <.plt>

0000000000400ce0 <fprintf@plt>:
  400ce0:	ff 25 b2 43 20 00    	jmpq   *0x2043b2(%rip)        # 605098 <fprintf@GLIBC_2.2.5>
  400ce6:	68 10 00 00 00       	pushq  $0x10
  400ceb:	e9 e0 fe ff ff       	jmpq   400bd0 <.plt>

0000000000400cf0 <strtol@plt>:
  400cf0:	ff 25 aa 43 20 00    	jmpq   *0x2043aa(%rip)        # 6050a0 <strtol@GLIBC_2.2.5>
  400cf6:	68 11 00 00 00       	pushq  $0x11
  400cfb:	e9 d0 fe ff ff       	jmpq   400bd0 <.plt>

0000000000400d00 <memcpy@plt>:
  400d00:	ff 25 a2 43 20 00    	jmpq   *0x2043a2(%rip)        # 6050a8 <memcpy@GLIBC_2.14>
  400d06:	68 12 00 00 00       	pushq  $0x12
  400d0b:	e9 c0 fe ff ff       	jmpq   400bd0 <.plt>

0000000000400d10 <time@plt>:
  400d10:	ff 25 9a 43 20 00    	jmpq   *0x20439a(%rip)        # 6050b0 <time@GLIBC_2.2.5>
  400d16:	68 13 00 00 00       	pushq  $0x13
  400d1b:	e9 b0 fe ff ff       	jmpq   400bd0 <.plt>

0000000000400d20 <random@plt>:
  400d20:	ff 25 92 43 20 00    	jmpq   *0x204392(%rip)        # 6050b8 <random@GLIBC_2.2.5>
  400d26:	68 14 00 00 00       	pushq  $0x14
  400d2b:	e9 a0 fe ff ff       	jmpq   400bd0 <.plt>

0000000000400d30 <_IO_getc@plt>:
  400d30:	ff 25 8a 43 20 00    	jmpq   *0x20438a(%rip)        # 6050c0 <_IO_getc@GLIBC_2.2.5>
  400d36:	68 15 00 00 00       	pushq  $0x15
  400d3b:	e9 90 fe ff ff       	jmpq   400bd0 <.plt>

0000000000400d40 <__isoc99_sscanf@plt>:
  400d40:	ff 25 82 43 20 00    	jmpq   *0x204382(%rip)        # 6050c8 <__isoc99_sscanf@GLIBC_2.7>
  400d46:	68 16 00 00 00       	pushq  $0x16
  400d4b:	e9 80 fe ff ff       	jmpq   400bd0 <.plt>

0000000000400d50 <munmap@plt>:
  400d50:	ff 25 7a 43 20 00    	jmpq   *0x20437a(%rip)        # 6050d0 <munmap@GLIBC_2.2.5>
  400d56:	68 17 00 00 00       	pushq  $0x17
  400d5b:	e9 70 fe ff ff       	jmpq   400bd0 <.plt>

0000000000400d60 <bcopy@plt>:
  400d60:	ff 25 72 43 20 00    	jmpq   *0x204372(%rip)        # 6050d8 <bcopy@GLIBC_2.2.5>
  400d66:	68 18 00 00 00       	pushq  $0x18
  400d6b:	e9 60 fe ff ff       	jmpq   400bd0 <.plt>

0000000000400d70 <fopen@plt>:
  400d70:	ff 25 6a 43 20 00    	jmpq   *0x20436a(%rip)        # 6050e0 <fopen@GLIBC_2.2.5>
  400d76:	68 19 00 00 00       	pushq  $0x19
  400d7b:	e9 50 fe ff ff       	jmpq   400bd0 <.plt>

0000000000400d80 <getopt@plt>:
  400d80:	ff 25 62 43 20 00    	jmpq   *0x204362(%rip)        # 6050e8 <getopt@GLIBC_2.2.5>
  400d86:	68 1a 00 00 00       	pushq  $0x1a
  400d8b:	e9 40 fe ff ff       	jmpq   400bd0 <.plt>

0000000000400d90 <strtoul@plt>:
  400d90:	ff 25 5a 43 20 00    	jmpq   *0x20435a(%rip)        # 6050f0 <strtoul@GLIBC_2.2.5>
  400d96:	68 1b 00 00 00       	pushq  $0x1b
  400d9b:	e9 30 fe ff ff       	jmpq   400bd0 <.plt>

0000000000400da0 <gethostname@plt>:
  400da0:	ff 25 52 43 20 00    	jmpq   *0x204352(%rip)        # 6050f8 <gethostname@GLIBC_2.2.5>
  400da6:	68 1c 00 00 00       	pushq  $0x1c
  400dab:	e9 20 fe ff ff       	jmpq   400bd0 <.plt>

0000000000400db0 <sprintf@plt>:
  400db0:	ff 25 4a 43 20 00    	jmpq   *0x20434a(%rip)        # 605100 <sprintf@GLIBC_2.2.5>
  400db6:	68 1d 00 00 00       	pushq  $0x1d
  400dbb:	e9 10 fe ff ff       	jmpq   400bd0 <.plt>

0000000000400dc0 <exit@plt>:
  400dc0:	ff 25 42 43 20 00    	jmpq   *0x204342(%rip)        # 605108 <exit@GLIBC_2.2.5>
  400dc6:	68 1e 00 00 00       	pushq  $0x1e
  400dcb:	e9 00 fe ff ff       	jmpq   400bd0 <.plt>

0000000000400dd0 <connect@plt>:
  400dd0:	ff 25 3a 43 20 00    	jmpq   *0x20433a(%rip)        # 605110 <connect@GLIBC_2.2.5>
  400dd6:	68 1f 00 00 00       	pushq  $0x1f
  400ddb:	e9 f0 fd ff ff       	jmpq   400bd0 <.plt>

0000000000400de0 <socket@plt>:
  400de0:	ff 25 32 43 20 00    	jmpq   *0x204332(%rip)        # 605118 <socket@GLIBC_2.2.5>
  400de6:	68 20 00 00 00       	pushq  $0x20
  400deb:	e9 e0 fd ff ff       	jmpq   400bd0 <.plt>

Disassembly of section .plt.got:

0000000000400df0 <.plt.got>:
  400df0:	ff 25 02 42 20 00    	jmpq   *0x204202(%rip)        # 604ff8 <__gmon_start__>
  400df6:	66 90                	xchg   %ax,%ax

Disassembly of section .text:

0000000000400e00 <_start>:
  400e00:	31 ed                	xor    %ebp,%ebp
  400e02:	49 89 d1             	mov    %rdx,%r9
  400e05:	5e                   	pop    %rsi
  400e06:	48 89 e2             	mov    %rsp,%rdx
  400e09:	48 83 e4 f0          	and    $0xfffffffffffffff0,%rsp
  400e0d:	50                   	push   %rax
  400e0e:	54                   	push   %rsp
  400e0f:	49 c7 c0 70 2d 40 00 	mov    $0x402d70,%r8
  400e16:	48 c7 c1 00 2d 40 00 	mov    $0x402d00,%rcx
  400e1d:	48 c7 c7 c0 10 40 00 	mov    $0x4010c0,%rdi
  400e24:	e8 87 fe ff ff       	callq  400cb0 <__libc_start_main@plt>
  400e29:	f4                   	hlt    
  400e2a:	66 0f 1f 44 00 00    	nopw   0x0(%rax,%rax,1)

0000000000400e30 <deregister_tm_clones>:
  400e30:	b8 97 54 60 00       	mov    $0x605497,%eax
  400e35:	55                   	push   %rbp
  400e36:	48 2d 90 54 60 00    	sub    $0x605490,%rax
  400e3c:	48 83 f8 0e          	cmp    $0xe,%rax
  400e40:	48 89 e5             	mov    %rsp,%rbp
  400e43:	77 02                	ja     400e47 <deregister_tm_clones+0x17>
  400e45:	5d                   	pop    %rbp
  400e46:	c3                   	retq   
  400e47:	b8 00 00 00 00       	mov    $0x0,%eax
  400e4c:	48 85 c0             	test   %rax,%rax
  400e4f:	74 f4                	je     400e45 <deregister_tm_clones+0x15>
  400e51:	5d                   	pop    %rbp
  400e52:	bf 90 54 60 00       	mov    $0x605490,%edi
  400e57:	ff e0                	jmpq   *%rax
  400e59:	0f 1f 80 00 00 00 00 	nopl   0x0(%rax)

0000000000400e60 <register_tm_clones>:
  400e60:	b8 90 54 60 00       	mov    $0x605490,%eax
  400e65:	55                   	push   %rbp
  400e66:	48 2d 90 54 60 00    	sub    $0x605490,%rax
  400e6c:	48 c1 f8 03          	sar    $0x3,%rax
  400e70:	48 89 e5             	mov    %rsp,%rbp
  400e73:	48 89 c2             	mov    %rax,%rdx
  400e76:	48 c1 ea 3f          	shr    $0x3f,%rdx
  400e7a:	48 01 d0             	add    %rdx,%rax
  400e7d:	48 d1 f8             	sar    %rax
  400e80:	75 02                	jne    400e84 <register_tm_clones+0x24>
  400e82:	5d                   	pop    %rbp
  400e83:	c3                   	retq   
  400e84:	ba 00 00 00 00       	mov    $0x0,%edx
  400e89:	48 85 d2             	test   %rdx,%rdx
  400e8c:	74 f4                	je     400e82 <register_tm_clones+0x22>
  400e8e:	5d                   	pop    %rbp
  400e8f:	48 89 c6             	mov    %rax,%rsi
  400e92:	bf 90 54 60 00       	mov    $0x605490,%edi
  400e97:	ff e2                	jmpq   *%rdx
  400e99:	0f 1f 80 00 00 00 00 	nopl   0x0(%rax)

0000000000400ea0 <__do_global_dtors_aux>:
  400ea0:	80 3d 11 46 20 00 00 	cmpb   $0x0,0x204611(%rip)        # 6054b8 <completed.6355>
  400ea7:	75 11                	jne    400eba <__do_global_dtors_aux+0x1a>
  400ea9:	55                   	push   %rbp
  400eaa:	48 89 e5             	mov    %rsp,%rbp
  400ead:	e8 7e ff ff ff       	callq  400e30 <deregister_tm_clones>
  400eb2:	5d                   	pop    %rbp
  400eb3:	c6 05 fe 45 20 00 01 	movb   $0x1,0x2045fe(%rip)        # 6054b8 <completed.6355>
  400eba:	f3 c3                	repz retq 
  400ebc:	0f 1f 40 00          	nopl   0x0(%rax)

0000000000400ec0 <frame_dummy>:
  400ec0:	48 83 3d 58 3f 20 00 	cmpq   $0x0,0x203f58(%rip)        # 604e20 <__JCR_END__>
  400ec7:	00 
  400ec8:	74 1e                	je     400ee8 <frame_dummy+0x28>
  400eca:	b8 00 00 00 00       	mov    $0x0,%eax
  400ecf:	48 85 c0             	test   %rax,%rax
  400ed2:	74 14                	je     400ee8 <frame_dummy+0x28>
  400ed4:	55                   	push   %rbp
  400ed5:	bf 20 4e 60 00       	mov    $0x604e20,%edi
  400eda:	48 89 e5             	mov    %rsp,%rbp
  400edd:	ff d0                	callq  *%rax
  400edf:	5d                   	pop    %rbp
  400ee0:	e9 7b ff ff ff       	jmpq   400e60 <register_tm_clones>
  400ee5:	0f 1f 00             	nopl   (%rax)
  400ee8:	e9 73 ff ff ff       	jmpq   400e60 <register_tm_clones>
  400eed:	0f 1f 00             	nopl   (%rax)

0000000000400ef0 <usage>:
  400ef0:	48 83 ec 08          	sub    $0x8,%rsp
  400ef4:	48 89 fe             	mov    %rdi,%rsi
  400ef7:	83 3d ea 45 20 00 00 	cmpl   $0x0,0x2045ea(%rip)        # 6054e8 <is_checker>
  400efe:	74 39                	je     400f39 <usage+0x49>
  400f00:	bf 90 2d 40 00       	mov    $0x402d90,%edi
  400f05:	b8 00 00 00 00       	mov    $0x0,%eax
  400f0a:	e8 51 fd ff ff       	callq  400c60 <printf@plt>
  400f0f:	bf c8 2d 40 00       	mov    $0x402dc8,%edi
  400f14:	e8 17 fd ff ff       	callq  400c30 <puts@plt>
  400f19:	bf 40 2f 40 00       	mov    $0x402f40,%edi
  400f1e:	e8 0d fd ff ff       	callq  400c30 <puts@plt>
  400f23:	bf f0 2d 40 00       	mov    $0x402df0,%edi
  400f28:	e8 03 fd ff ff       	callq  400c30 <puts@plt>
  400f2d:	bf 5a 2f 40 00       	mov    $0x402f5a,%edi
  400f32:	e8 f9 fc ff ff       	callq  400c30 <puts@plt>
  400f37:	eb 2d                	jmp    400f66 <usage+0x76>
  400f39:	bf 76 2f 40 00       	mov    $0x402f76,%edi
  400f3e:	b8 00 00 00 00       	mov    $0x0,%eax
  400f43:	e8 18 fd ff ff       	callq  400c60 <printf@plt>
  400f48:	bf 18 2e 40 00       	mov    $0x402e18,%edi
  400f4d:	e8 de fc ff ff       	callq  400c30 <puts@plt>
  400f52:	bf 40 2e 40 00       	mov    $0x402e40,%edi
  400f57:	e8 d4 fc ff ff       	callq  400c30 <puts@plt>
  400f5c:	bf 94 2f 40 00       	mov    $0x402f94,%edi
  400f61:	e8 ca fc ff ff       	callq  400c30 <puts@plt>
  400f66:	bf 00 00 00 00       	mov    $0x0,%edi
  400f6b:	e8 50 fe ff ff       	callq  400dc0 <exit@plt>

0000000000400f70 <initialize_target>:
  400f70:	55                   	push   %rbp
  400f71:	53                   	push   %rbx
  400f72:	48 81 ec 08 21 00 00 	sub    $0x2108,%rsp
  400f79:	89 f5                	mov    %esi,%ebp
  400f7b:	89 3d 57 45 20 00    	mov    %edi,0x204557(%rip)        # 6054d8 <check_level>
  400f81:	8b 3d c1 41 20 00    	mov    0x2041c1(%rip),%edi        # 605148 <target_id>
  400f87:	e8 47 1d 00 00       	callq  402cd3 <gencookie>
  400f8c:	89 05 52 45 20 00    	mov    %eax,0x204552(%rip)        # 6054e4 <cookie>
  400f92:	89 c7                	mov    %eax,%edi
  400f94:	e8 3a 1d 00 00       	callq  402cd3 <gencookie>
  400f99:	89 05 41 45 20 00    	mov    %eax,0x204541(%rip)        # 6054e0 <authkey>
  400f9f:	8b 05 a3 41 20 00    	mov    0x2041a3(%rip),%eax        # 605148 <target_id>
  400fa5:	8d 78 01             	lea    0x1(%rax),%edi
  400fa8:	e8 53 fc ff ff       	callq  400c00 <srandom@plt>
  400fad:	e8 6e fd ff ff       	callq  400d20 <random@plt>
  400fb2:	89 c7                	mov    %eax,%edi
  400fb4:	e8 ca 02 00 00       	callq  401283 <scramble>
  400fb9:	89 c3                	mov    %eax,%ebx
  400fbb:	85 ed                	test   %ebp,%ebp
  400fbd:	74 18                	je     400fd7 <initialize_target+0x67>
  400fbf:	bf 00 00 00 00       	mov    $0x0,%edi
  400fc4:	e8 47 fd ff ff       	callq  400d10 <time@plt>
  400fc9:	89 c7                	mov    %eax,%edi
  400fcb:	e8 30 fc ff ff       	callq  400c00 <srandom@plt>
  400fd0:	e8 4b fd ff ff       	callq  400d20 <random@plt>
  400fd5:	eb 05                	jmp    400fdc <initialize_target+0x6c>
  400fd7:	b8 00 00 00 00       	mov    $0x0,%eax
  400fdc:	01 c3                	add    %eax,%ebx
  400fde:	0f b7 db             	movzwl %bx,%ebx
  400fe1:	8d 04 dd 00 01 00 00 	lea    0x100(,%rbx,8),%eax
  400fe8:	89 c0                	mov    %eax,%eax
  400fea:	48 89 05 8f 44 20 00 	mov    %rax,0x20448f(%rip)        # 605480 <buf_offset>
  400ff1:	c6 05 10 51 20 00 72 	movb   $0x72,0x205110(%rip)        # 606108 <target_prefix>
  400ff8:	83 3d 89 44 20 00 00 	cmpl   $0x0,0x204489(%rip)        # 605488 <notify>
  400fff:	0f 84 b1 00 00 00    	je     4010b6 <initialize_target+0x146>
  401005:	83 3d dc 44 20 00 00 	cmpl   $0x0,0x2044dc(%rip)        # 6054e8 <is_checker>
  40100c:	0f 85 a4 00 00 00    	jne    4010b6 <initialize_target+0x146>
  401012:	be 00 01 00 00       	mov    $0x100,%esi
  401017:	48 89 e7             	mov    %rsp,%rdi
  40101a:	e8 81 fd ff ff       	callq  400da0 <gethostname@plt>
  40101f:	85 c0                	test   %eax,%eax
  401021:	74 25                	je     401048 <initialize_target+0xd8>
  401023:	bf 70 2e 40 00       	mov    $0x402e70,%edi
  401028:	e8 03 fc ff ff       	callq  400c30 <puts@plt>
  40102d:	bf 08 00 00 00       	mov    $0x8,%edi
  401032:	e8 89 fd ff ff       	callq  400dc0 <exit@plt>
  401037:	48 89 e6             	mov    %rsp,%rsi
  40103a:	e8 a1 fb ff ff       	callq  400be0 <strcasecmp@plt>
  40103f:	85 c0                	test   %eax,%eax
  401041:	74 21                	je     401064 <initialize_target+0xf4>
  401043:	83 c3 01             	add    $0x1,%ebx
  401046:	eb 05                	jmp    40104d <initialize_target+0xdd>
  401048:	bb 00 00 00 00       	mov    $0x0,%ebx
  40104d:	48 63 c3             	movslq %ebx,%rax
  401050:	48 8b 3c c5 60 51 60 	mov    0x605160(,%rax,8),%rdi
  401057:	00 
  401058:	48 85 ff             	test   %rdi,%rdi
  40105b:	75 da                	jne    401037 <initialize_target+0xc7>
  40105d:	b8 00 00 00 00       	mov    $0x0,%eax
  401062:	eb 05                	jmp    401069 <initialize_target+0xf9>
  401064:	b8 01 00 00 00       	mov    $0x1,%eax
  401069:	85 c0                	test   %eax,%eax
  40106b:	75 17                	jne    401084 <initialize_target+0x114>
  40106d:	48 89 e6             	mov    %rsp,%rsi
  401070:	bf a8 2e 40 00       	mov    $0x402ea8,%edi
  401075:	e8 e6 fb ff ff       	callq  400c60 <printf@plt>
  40107a:	bf 08 00 00 00       	mov    $0x8,%edi
  40107f:	e8 3c fd ff ff       	callq  400dc0 <exit@plt>
  401084:	48 8d bc 24 00 01 00 	lea    0x100(%rsp),%rdi
  40108b:	00 
  40108c:	e8 d9 19 00 00       	callq  402a6a <init_driver>
  401091:	85 c0                	test   %eax,%eax
  401093:	79 21                	jns    4010b6 <initialize_target+0x146>
  401095:	48 8d b4 24 00 01 00 	lea    0x100(%rsp),%rsi
  40109c:	00 
  40109d:	bf e8 2e 40 00       	mov    $0x402ee8,%edi
  4010a2:	b8 00 00 00 00       	mov    $0x0,%eax
  4010a7:	e8 b4 fb ff ff       	callq  400c60 <printf@plt>
  4010ac:	bf 08 00 00 00       	mov    $0x8,%edi
  4010b1:	e8 0a fd ff ff       	callq  400dc0 <exit@plt>
  4010b6:	48 81 c4 08 21 00 00 	add    $0x2108,%rsp
  4010bd:	5b                   	pop    %rbx
  4010be:	5d                   	pop    %rbp
  4010bf:	c3                   	retq   

00000000004010c0 <main>:
  4010c0:	41 56                	push   %r14
  4010c2:	41 55                	push   %r13
  4010c4:	41 54                	push   %r12
  4010c6:	55                   	push   %rbp
  4010c7:	53                   	push   %rbx
  4010c8:	41 89 fc             	mov    %edi,%r12d
  4010cb:	48 89 f3             	mov    %rsi,%rbx
  4010ce:	be 91 1e 40 00       	mov    $0x401e91,%esi
  4010d3:	bf 0b 00 00 00       	mov    $0xb,%edi
  4010d8:	e8 e3 fb ff ff       	callq  400cc0 <signal@plt>
  4010dd:	be 43 1e 40 00       	mov    $0x401e43,%esi
  4010e2:	bf 07 00 00 00       	mov    $0x7,%edi
  4010e7:	e8 d4 fb ff ff       	callq  400cc0 <signal@plt>
  4010ec:	be df 1e 40 00       	mov    $0x401edf,%esi
  4010f1:	bf 04 00 00 00       	mov    $0x4,%edi
  4010f6:	e8 c5 fb ff ff       	callq  400cc0 <signal@plt>
  4010fb:	83 3d e6 43 20 00 00 	cmpl   $0x0,0x2043e6(%rip)        # 6054e8 <is_checker>
  401102:	74 20                	je     401124 <main+0x64>
  401104:	be 2d 1f 40 00       	mov    $0x401f2d,%esi
  401109:	bf 0e 00 00 00       	mov    $0xe,%edi
  40110e:	e8 ad fb ff ff       	callq  400cc0 <signal@plt>
  401113:	bf 05 00 00 00       	mov    $0x5,%edi
  401118:	e8 63 fb ff ff       	callq  400c80 <alarm@plt>
  40111d:	bd b2 2f 40 00       	mov    $0x402fb2,%ebp
  401122:	eb 05                	jmp    401129 <main+0x69>
  401124:	bd ad 2f 40 00       	mov    $0x402fad,%ebp
  401129:	48 8b 05 70 43 20 00 	mov    0x204370(%rip),%rax        # 6054a0 <stdin@@GLIBC_2.2.5>
  401130:	48 89 05 99 43 20 00 	mov    %rax,0x204399(%rip)        # 6054d0 <infile>
  401137:	41 bd 00 00 00 00    	mov    $0x0,%r13d
  40113d:	41 be 00 00 00 00    	mov    $0x0,%r14d
  401143:	e9 b9 00 00 00       	jmpq   401201 <main+0x141>
  401148:	83 e8 61             	sub    $0x61,%eax
  40114b:	3c 10                	cmp    $0x10,%al
  40114d:	0f 87 93 00 00 00    	ja     4011e6 <main+0x126>
  401153:	0f b6 c0             	movzbl %al,%eax
  401156:	ff 24 c5 f8 2f 40 00 	jmpq   *0x402ff8(,%rax,8)
  40115d:	48 8b 3b             	mov    (%rbx),%rdi
  401160:	e8 8b fd ff ff       	callq  400ef0 <usage>
  401165:	be 7d 32 40 00       	mov    $0x40327d,%esi
  40116a:	48 8b 3d 37 43 20 00 	mov    0x204337(%rip),%rdi        # 6054a8 <optarg@@GLIBC_2.2.5>
  401171:	e8 fa fb ff ff       	callq  400d70 <fopen@plt>
  401176:	48 89 05 53 43 20 00 	mov    %rax,0x204353(%rip)        # 6054d0 <infile>
  40117d:	48 85 c0             	test   %rax,%rax
  401180:	75 7f                	jne    401201 <main+0x141>
  401182:	48 8b 15 1f 43 20 00 	mov    0x20431f(%rip),%rdx        # 6054a8 <optarg@@GLIBC_2.2.5>
  401189:	be ba 2f 40 00       	mov    $0x402fba,%esi
  40118e:	48 8b 3d 1b 43 20 00 	mov    0x20431b(%rip),%rdi        # 6054b0 <stderr@@GLIBC_2.2.5>
  401195:	e8 46 fb ff ff       	callq  400ce0 <fprintf@plt>
  40119a:	b8 01 00 00 00       	mov    $0x1,%eax
  40119f:	e9 d6 00 00 00       	jmpq   40127a <main+0x1ba>
  4011a4:	ba 10 00 00 00       	mov    $0x10,%edx
  4011a9:	be 00 00 00 00       	mov    $0x0,%esi
  4011ae:	48 8b 3d f3 42 20 00 	mov    0x2042f3(%rip),%rdi        # 6054a8 <optarg@@GLIBC_2.2.5>
  4011b5:	e8 d6 fb ff ff       	callq  400d90 <strtoul@plt>
  4011ba:	41 89 c6             	mov    %eax,%r14d
  4011bd:	eb 42                	jmp    401201 <main+0x141>
  4011bf:	ba 0a 00 00 00       	mov    $0xa,%edx
  4011c4:	be 00 00 00 00       	mov    $0x0,%esi
  4011c9:	48 8b 3d d8 42 20 00 	mov    0x2042d8(%rip),%rdi        # 6054a8 <optarg@@GLIBC_2.2.5>
  4011d0:	e8 1b fb ff ff       	callq  400cf0 <strtol@plt>
  4011d5:	41 89 c5             	mov    %eax,%r13d
  4011d8:	eb 27                	jmp    401201 <main+0x141>
  4011da:	c7 05 a4 42 20 00 00 	movl   $0x0,0x2042a4(%rip)        # 605488 <notify>
  4011e1:	00 00 00 
  4011e4:	eb 1b                	jmp    401201 <main+0x141>
  4011e6:	40 0f be f6          	movsbl %sil,%esi
  4011ea:	bf d7 2f 40 00       	mov    $0x402fd7,%edi
  4011ef:	b8 00 00 00 00       	mov    $0x0,%eax
  4011f4:	e8 67 fa ff ff       	callq  400c60 <printf@plt>
  4011f9:	48 8b 3b             	mov    (%rbx),%rdi
  4011fc:	e8 ef fc ff ff       	callq  400ef0 <usage>
  401201:	48 89 ea             	mov    %rbp,%rdx
  401204:	48 89 de             	mov    %rbx,%rsi
  401207:	44 89 e7             	mov    %r12d,%edi
  40120a:	e8 71 fb ff ff       	callq  400d80 <getopt@plt>
  40120f:	89 c6                	mov    %eax,%esi
  401211:	3c ff                	cmp    $0xff,%al
  401213:	0f 85 2f ff ff ff    	jne    401148 <main+0x88>
  401219:	be 01 00 00 00       	mov    $0x1,%esi
  40121e:	44 89 ef             	mov    %r13d,%edi
  401221:	e8 4a fd ff ff       	callq  400f70 <initialize_target>
  401226:	83 3d bb 42 20 00 00 	cmpl   $0x0,0x2042bb(%rip)        # 6054e8 <is_checker>
  40122d:	74 25                	je     401254 <main+0x194>
  40122f:	44 3b 35 aa 42 20 00 	cmp    0x2042aa(%rip),%r14d        # 6054e0 <authkey>
  401236:	74 1c                	je     401254 <main+0x194>
  401238:	44 89 f6             	mov    %r14d,%esi
  40123b:	bf 10 2f 40 00       	mov    $0x402f10,%edi
  401240:	b8 00 00 00 00       	mov    $0x0,%eax
  401245:	e8 16 fa ff ff       	callq  400c60 <printf@plt>
  40124a:	b8 00 00 00 00       	mov    $0x0,%eax
  40124f:	e8 f7 08 00 00       	callq  401b4b <check_fail>
  401254:	8b 35 8a 42 20 00    	mov    0x20428a(%rip),%esi        # 6054e4 <cookie>
  40125a:	bf ea 2f 40 00       	mov    $0x402fea,%edi
  40125f:	b8 00 00 00 00       	mov    $0x0,%eax
  401264:	e8 f7 f9 ff ff       	callq  400c60 <printf@plt>
  401269:	48 8b 3d 10 42 20 00 	mov    0x204210(%rip),%rdi        # 605480 <buf_offset>
  401270:	e8 06 0d 00 00       	callq  401f7b <launch>
  401275:	b8 00 00 00 00       	mov    $0x0,%eax
  40127a:	5b                   	pop    %rbx
  40127b:	5d                   	pop    %rbp
  40127c:	41 5c                	pop    %r12
  40127e:	41 5d                	pop    %r13
  401280:	41 5e                	pop    %r14
  401282:	c3                   	retq   

0000000000401283 <scramble>:
  401283:	b8 00 00 00 00       	mov    $0x0,%eax
  401288:	eb 11                	jmp    40129b <scramble+0x18>
  40128a:	69 c8 2f 83 00 00    	imul   $0x832f,%eax,%ecx
  401290:	01 f9                	add    %edi,%ecx
  401292:	89 c2                	mov    %eax,%edx
  401294:	89 4c 94 d0          	mov    %ecx,-0x30(%rsp,%rdx,4)
  401298:	83 c0 01             	add    $0x1,%eax
  40129b:	83 f8 09             	cmp    $0x9,%eax
  40129e:	76 ea                	jbe    40128a <scramble+0x7>
  4012a0:	8b 44 24 e0          	mov    -0x20(%rsp),%eax
  4012a4:	69 c0 e6 22 00 00    	imul   $0x22e6,%eax,%eax
  4012aa:	89 44 24 e0          	mov    %eax,-0x20(%rsp)
  4012ae:	8b 44 24 dc          	mov    -0x24(%rsp),%eax
  4012b2:	69 c0 11 cc 00 00    	imul   $0xcc11,%eax,%eax
  4012b8:	89 44 24 dc          	mov    %eax,-0x24(%rsp)
  4012bc:	8b 44 24 d4          	mov    -0x2c(%rsp),%eax
  4012c0:	69 c0 bf 4c 00 00    	imul   $0x4cbf,%eax,%eax
  4012c6:	89 44 24 d4          	mov    %eax,-0x2c(%rsp)
  4012ca:	8b 44 24 f0          	mov    -0x10(%rsp),%eax
  4012ce:	69 c0 67 cf 00 00    	imul   $0xcf67,%eax,%eax
  4012d4:	89 44 24 f0          	mov    %eax,-0x10(%rsp)
  4012d8:	8b 44 24 e8          	mov    -0x18(%rsp),%eax
  4012dc:	69 c0 ad 33 00 00    	imul   $0x33ad,%eax,%eax
  4012e2:	89 44 24 e8          	mov    %eax,-0x18(%rsp)
  4012e6:	8b 44 24 ec          	mov    -0x14(%rsp),%eax
  4012ea:	69 c0 ec 50 00 00    	imul   $0x50ec,%eax,%eax
  4012f0:	89 44 24 ec          	mov    %eax,-0x14(%rsp)
  4012f4:	8b 44 24 d4          	mov    -0x2c(%rsp),%eax
  4012f8:	69 c0 48 b3 00 00    	imul   $0xb348,%eax,%eax
  4012fe:	89 44 24 d4          	mov    %eax,-0x2c(%rsp)
  401302:	8b 44 24 e8          	mov    -0x18(%rsp),%eax
  401306:	69 c0 db fb 00 00    	imul   $0xfbdb,%eax,%eax
  40130c:	89 44 24 e8          	mov    %eax,-0x18(%rsp)
  401310:	8b 44 24 ec          	mov    -0x14(%rsp),%eax
  401314:	69 c0 fb 8a 00 00    	imul   $0x8afb,%eax,%eax
  40131a:	89 44 24 ec          	mov    %eax,-0x14(%rsp)
  40131e:	8b 44 24 dc          	mov    -0x24(%rsp),%eax
  401322:	69 c0 99 da 00 00    	imul   $0xda99,%eax,%eax
  401328:	89 44 24 dc          	mov    %eax,-0x24(%rsp)
  40132c:	8b 44 24 ec          	mov    -0x14(%rsp),%eax
  401330:	69 c0 17 92 00 00    	imul   $0x9217,%eax,%eax
  401336:	89 44 24 ec          	mov    %eax,-0x14(%rsp)
  40133a:	8b 44 24 e0          	mov    -0x20(%rsp),%eax
  40133e:	69 c0 3b e1 00 00    	imul   $0xe13b,%eax,%eax
  401344:	89 44 24 e0          	mov    %eax,-0x20(%rsp)
  401348:	8b 44 24 dc          	mov    -0x24(%rsp),%eax
  40134c:	69 c0 44 74 00 00    	imul   $0x7444,%eax,%eax
  401352:	89 44 24 dc          	mov    %eax,-0x24(%rsp)
  401356:	8b 44 24 e4          	mov    -0x1c(%rsp),%eax
  40135a:	69 c0 94 82 00 00    	imul   $0x8294,%eax,%eax
  401360:	89 44 24 e4          	mov    %eax,-0x1c(%rsp)
  401364:	8b 44 24 d4          	mov    -0x2c(%rsp),%eax
  401368:	69 c0 e6 36 00 00    	imul   $0x36e6,%eax,%eax
  40136e:	89 44 24 d4          	mov    %eax,-0x2c(%rsp)
  401372:	8b 44 24 e0          	mov    -0x20(%rsp),%eax
  401376:	69 c0 56 dd 00 00    	imul   $0xdd56,%eax,%eax
  40137c:	89 44 24 e0          	mov    %eax,-0x20(%rsp)
  401380:	8b 44 24 dc          	mov    -0x24(%rsp),%eax
  401384:	69 c0 13 20 00 00    	imul   $0x2013,%eax,%eax
  40138a:	89 44 24 dc          	mov    %eax,-0x24(%rsp)
  40138e:	8b 44 24 f0          	mov    -0x10(%rsp),%eax
  401392:	69 c0 55 a3 00 00    	imul   $0xa355,%eax,%eax
  401398:	89 44 24 f0          	mov    %eax,-0x10(%rsp)
  40139c:	8b 44 24 f4          	mov    -0xc(%rsp),%eax
  4013a0:	69 c0 b3 20 00 00    	imul   $0x20b3,%eax,%eax
  4013a6:	89 44 24 f4          	mov    %eax,-0xc(%rsp)
  4013aa:	8b 44 24 e8          	mov    -0x18(%rsp),%eax
  4013ae:	69 c0 58 6f 00 00    	imul   $0x6f58,%eax,%eax
  4013b4:	89 44 24 e8          	mov    %eax,-0x18(%rsp)
  4013b8:	8b 44 24 e0          	mov    -0x20(%rsp),%eax
  4013bc:	69 c0 eb 52 00 00    	imul   $0x52eb,%eax,%eax
  4013c2:	89 44 24 e0          	mov    %eax,-0x20(%rsp)
  4013c6:	8b 44 24 ec          	mov    -0x14(%rsp),%eax
  4013ca:	69 c0 31 29 00 00    	imul   $0x2931,%eax,%eax
  4013d0:	89 44 24 ec          	mov    %eax,-0x14(%rsp)
  4013d4:	8b 44 24 e8          	mov    -0x18(%rsp),%eax
  4013d8:	69 c0 d2 d9 00 00    	imul   $0xd9d2,%eax,%eax
  4013de:	89 44 24 e8          	mov    %eax,-0x18(%rsp)
  4013e2:	8b 44 24 d4          	mov    -0x2c(%rsp),%eax
  4013e6:	69 c0 ab 57 00 00    	imul   $0x57ab,%eax,%eax
  4013ec:	89 44 24 d4          	mov    %eax,-0x2c(%rsp)
  4013f0:	8b 44 24 d8          	mov    -0x28(%rsp),%eax
  4013f4:	69 c0 cc 1f 00 00    	imul   $0x1fcc,%eax,%eax
  4013fa:	89 44 24 d8          	mov    %eax,-0x28(%rsp)
  4013fe:	8b 44 24 f4          	mov    -0xc(%rsp),%eax
  401402:	69 c0 72 c5 00 00    	imul   $0xc572,%eax,%eax
  401408:	89 44 24 f4          	mov    %eax,-0xc(%rsp)
  40140c:	8b 44 24 dc          	mov    -0x24(%rsp),%eax
  401410:	69 c0 1a b8 00 00    	imul   $0xb81a,%eax,%eax
  401416:	89 44 24 dc          	mov    %eax,-0x24(%rsp)
  40141a:	8b 44 24 d8          	mov    -0x28(%rsp),%eax
  40141e:	69 c0 06 04 00 00    	imul   $0x406,%eax,%eax
  401424:	89 44 24 d8          	mov    %eax,-0x28(%rsp)
  401428:	8b 44 24 d0          	mov    -0x30(%rsp),%eax
  40142c:	69 c0 b7 9e 00 00    	imul   $0x9eb7,%eax,%eax
  401432:	89 44 24 d0          	mov    %eax,-0x30(%rsp)
  401436:	8b 44 24 d4          	mov    -0x2c(%rsp),%eax
  40143a:	69 c0 85 86 00 00    	imul   $0x8685,%eax,%eax
  401440:	89 44 24 d4          	mov    %eax,-0x2c(%rsp)
  401444:	8b 44 24 ec          	mov    -0x14(%rsp),%eax
  401448:	69 c0 a3 7f 00 00    	imul   $0x7fa3,%eax,%eax
  40144e:	89 44 24 ec          	mov    %eax,-0x14(%rsp)
  401452:	8b 44 24 d0          	mov    -0x30(%rsp),%eax
  401456:	69 c0 6a 2f 00 00    	imul   $0x2f6a,%eax,%eax
  40145c:	89 44 24 d0          	mov    %eax,-0x30(%rsp)
  401460:	8b 44 24 e4          	mov    -0x1c(%rsp),%eax
  401464:	69 c0 42 0d 00 00    	imul   $0xd42,%eax,%eax
  40146a:	89 44 24 e4          	mov    %eax,-0x1c(%rsp)
  40146e:	8b 44 24 d4          	mov    -0x2c(%rsp),%eax
  401472:	69 c0 88 0c 00 00    	imul   $0xc88,%eax,%eax
  401478:	89 44 24 d4          	mov    %eax,-0x2c(%rsp)
  40147c:	8b 44 24 f0          	mov    -0x10(%rsp),%eax
  401480:	69 c0 7c 45 00 00    	imul   $0x457c,%eax,%eax
  401486:	89 44 24 f0          	mov    %eax,-0x10(%rsp)
  40148a:	8b 44 24 d0          	mov    -0x30(%rsp),%eax
  40148e:	69 c0 56 82 00 00    	imul   $0x8256,%eax,%eax
  401494:	89 44 24 d0          	mov    %eax,-0x30(%rsp)
  401498:	8b 44 24 dc          	mov    -0x24(%rsp),%eax
  40149c:	69 c0 25 3c 00 00    	imul   $0x3c25,%eax,%eax
  4014a2:	89 44 24 dc          	mov    %eax,-0x24(%rsp)
  4014a6:	8b 44 24 d4          	mov    -0x2c(%rsp),%eax
  4014aa:	69 c0 9b 9e 00 00    	imul   $0x9e9b,%eax,%eax
  4014b0:	89 44 24 d4          	mov    %eax,-0x2c(%rsp)
  4014b4:	8b 44 24 dc          	mov    -0x24(%rsp),%eax
  4014b8:	69 c0 94 d0 00 00    	imul   $0xd094,%eax,%eax
  4014be:	89 44 24 dc          	mov    %eax,-0x24(%rsp)
  4014c2:	8b 44 24 e8          	mov    -0x18(%rsp),%eax
  4014c6:	69 c0 c4 7a 00 00    	imul   $0x7ac4,%eax,%eax
  4014cc:	89 44 24 e8          	mov    %eax,-0x18(%rsp)
  4014d0:	8b 44 24 d8          	mov    -0x28(%rsp),%eax
  4014d4:	69 c0 8b 28 00 00    	imul   $0x288b,%eax,%eax
  4014da:	89 44 24 d8          	mov    %eax,-0x28(%rsp)
  4014de:	8b 44 24 ec          	mov    -0x14(%rsp),%eax
  4014e2:	69 c0 43 a2 00 00    	imul   $0xa243,%eax,%eax
  4014e8:	89 44 24 ec          	mov    %eax,-0x14(%rsp)
  4014ec:	8b 44 24 dc          	mov    -0x24(%rsp),%eax
  4014f0:	69 c0 e3 e6 00 00    	imul   $0xe6e3,%eax,%eax
  4014f6:	89 44 24 dc          	mov    %eax,-0x24(%rsp)
  4014fa:	8b 44 24 e8          	mov    -0x18(%rsp),%eax
  4014fe:	69 c0 03 0d 00 00    	imul   $0xd03,%eax,%eax
  401504:	89 44 24 e8          	mov    %eax,-0x18(%rsp)
  401508:	8b 44 24 d0          	mov    -0x30(%rsp),%eax
  40150c:	69 c0 e3 2c 00 00    	imul   $0x2ce3,%eax,%eax
  401512:	89 44 24 d0          	mov    %eax,-0x30(%rsp)
  401516:	8b 44 24 d0          	mov    -0x30(%rsp),%eax
  40151a:	69 c0 38 5b 00 00    	imul   $0x5b38,%eax,%eax
  401520:	89 44 24 d0          	mov    %eax,-0x30(%rsp)
  401524:	8b 44 24 e8          	mov    -0x18(%rsp),%eax
  401528:	69 c0 63 f7 00 00    	imul   $0xf763,%eax,%eax
  40152e:	89 44 24 e8          	mov    %eax,-0x18(%rsp)
  401532:	8b 44 24 d8          	mov    -0x28(%rsp),%eax
  401536:	69 c0 3c 4c 00 00    	imul   $0x4c3c,%eax,%eax
  40153c:	89 44 24 d8          	mov    %eax,-0x28(%rsp)
  401540:	8b 44 24 d8          	mov    -0x28(%rsp),%eax
  401544:	69 c0 61 5d 00 00    	imul   $0x5d61,%eax,%eax
  40154a:	89 44 24 d8          	mov    %eax,-0x28(%rsp)
  40154e:	8b 44 24 e8          	mov    -0x18(%rsp),%eax
  401552:	69 c0 9b 32 00 00    	imul   $0x329b,%eax,%eax
  401558:	89 44 24 e8          	mov    %eax,-0x18(%rsp)
  40155c:	8b 44 24 dc          	mov    -0x24(%rsp),%eax
  401560:	69 c0 a5 d4 00 00    	imul   $0xd4a5,%eax,%eax
  401566:	89 44 24 dc          	mov    %eax,-0x24(%rsp)
  40156a:	8b 44 24 e8          	mov    -0x18(%rsp),%eax
  40156e:	69 c0 46 3b 00 00    	imul   $0x3b46,%eax,%eax
  401574:	89 44 24 e8          	mov    %eax,-0x18(%rsp)
  401578:	8b 44 24 e4          	mov    -0x1c(%rsp),%eax
  40157c:	69 c0 79 60 00 00    	imul   $0x6079,%eax,%eax
  401582:	89 44 24 e4          	mov    %eax,-0x1c(%rsp)
  401586:	8b 44 24 f4          	mov    -0xc(%rsp),%eax
  40158a:	69 c0 c1 26 00 00    	imul   $0x26c1,%eax,%eax
  401590:	89 44 24 f4          	mov    %eax,-0xc(%rsp)
  401594:	8b 44 24 e4          	mov    -0x1c(%rsp),%eax
  401598:	69 c0 28 d0 00 00    	imul   $0xd028,%eax,%eax
  40159e:	89 44 24 e4          	mov    %eax,-0x1c(%rsp)
  4015a2:	8b 44 24 e8          	mov    -0x18(%rsp),%eax
  4015a6:	69 c0 6d 21 00 00    	imul   $0x216d,%eax,%eax
  4015ac:	89 44 24 e8          	mov    %eax,-0x18(%rsp)
  4015b0:	8b 44 24 e8          	mov    -0x18(%rsp),%eax
  4015b4:	69 c0 bb e1 00 00    	imul   $0xe1bb,%eax,%eax
  4015ba:	89 44 24 e8          	mov    %eax,-0x18(%rsp)
  4015be:	8b 44 24 e0          	mov    -0x20(%rsp),%eax
  4015c2:	69 c0 59 d9 00 00    	imul   $0xd959,%eax,%eax
  4015c8:	89 44 24 e0          	mov    %eax,-0x20(%rsp)
  4015cc:	8b 44 24 ec          	mov    -0x14(%rsp),%eax
  4015d0:	69 c0 fa 69 00 00    	imul   $0x69fa,%eax,%eax
  4015d6:	89 44 24 ec          	mov    %eax,-0x14(%rsp)
  4015da:	8b 44 24 f4          	mov    -0xc(%rsp),%eax
  4015de:	69 c0 39 4e 00 00    	imul   $0x4e39,%eax,%eax
  4015e4:	89 44 24 f4          	mov    %eax,-0xc(%rsp)
  4015e8:	8b 44 24 d4          	mov    -0x2c(%rsp),%eax
  4015ec:	69 c0 e5 79 00 00    	imul   $0x79e5,%eax,%eax
  4015f2:	89 44 24 d4          	mov    %eax,-0x2c(%rsp)
  4015f6:	8b 44 24 ec          	mov    -0x14(%rsp),%eax
  4015fa:	69 c0 64 43 00 00    	imul   $0x4364,%eax,%eax
  401600:	89 44 24 ec          	mov    %eax,-0x14(%rsp)
  401604:	8b 44 24 d8          	mov    -0x28(%rsp),%eax
  401608:	69 c0 13 34 00 00    	imul   $0x3413,%eax,%eax
  40160e:	89 44 24 d8          	mov    %eax,-0x28(%rsp)
  401612:	8b 44 24 d0          	mov    -0x30(%rsp),%eax
  401616:	69 c0 ef 75 00 00    	imul   $0x75ef,%eax,%eax
  40161c:	89 44 24 d0          	mov    %eax,-0x30(%rsp)
  401620:	8b 44 24 e8          	mov    -0x18(%rsp),%eax
  401624:	69 c0 65 e8 00 00    	imul   $0xe865,%eax,%eax
  40162a:	89 44 24 e8          	mov    %eax,-0x18(%rsp)
  40162e:	8b 44 24 d0          	mov    -0x30(%rsp),%eax
  401632:	69 c0 52 34 00 00    	imul   $0x3452,%eax,%eax
  401638:	89 44 24 d0          	mov    %eax,-0x30(%rsp)
  40163c:	8b 44 24 e8          	mov    -0x18(%rsp),%eax
  401640:	69 c0 7c 5d 00 00    	imul   $0x5d7c,%eax,%eax
  401646:	89 44 24 e8          	mov    %eax,-0x18(%rsp)
  40164a:	8b 44 24 f4          	mov    -0xc(%rsp),%eax
  40164e:	69 c0 d4 cd 00 00    	imul   $0xcdd4,%eax,%eax
  401654:	89 44 24 f4          	mov    %eax,-0xc(%rsp)
  401658:	8b 44 24 ec          	mov    -0x14(%rsp),%eax
  40165c:	69 c0 7a 49 00 00    	imul   $0x497a,%eax,%eax
  401662:	89 44 24 ec          	mov    %eax,-0x14(%rsp)
  401666:	8b 44 24 e0          	mov    -0x20(%rsp),%eax
  40166a:	69 c0 02 ef 00 00    	imul   $0xef02,%eax,%eax
  401670:	89 44 24 e0          	mov    %eax,-0x20(%rsp)
  401674:	8b 44 24 f4          	mov    -0xc(%rsp),%eax
  401678:	69 c0 1a 96 00 00    	imul   $0x961a,%eax,%eax
  40167e:	89 44 24 f4          	mov    %eax,-0xc(%rsp)
  401682:	8b 44 24 d4          	mov    -0x2c(%rsp),%eax
  401686:	69 c0 56 12 00 00    	imul   $0x1256,%eax,%eax
  40168c:	89 44 24 d4          	mov    %eax,-0x2c(%rsp)
  401690:	8b 44 24 f0          	mov    -0x10(%rsp),%eax
  401694:	69 c0 1f d4 00 00    	imul   $0xd41f,%eax,%eax
  40169a:	89 44 24 f0          	mov    %eax,-0x10(%rsp)
  40169e:	8b 44 24 f4          	mov    -0xc(%rsp),%eax
  4016a2:	69 c0 73 40 00 00    	imul   $0x4073,%eax,%eax
  4016a8:	89 44 24 f4          	mov    %eax,-0xc(%rsp)
  4016ac:	8b 44 24 d0          	mov    -0x30(%rsp),%eax
  4016b0:	69 c0 0d d2 00 00    	imul   $0xd20d,%eax,%eax
  4016b6:	89 44 24 d0          	mov    %eax,-0x30(%rsp)
  4016ba:	8b 44 24 e0          	mov    -0x20(%rsp),%eax
  4016be:	69 c0 f7 d4 00 00    	imul   $0xd4f7,%eax,%eax
  4016c4:	89 44 24 e0          	mov    %eax,-0x20(%rsp)
  4016c8:	8b 44 24 f4          	mov    -0xc(%rsp),%eax
  4016cc:	69 c0 1d 38 00 00    	imul   $0x381d,%eax,%eax
  4016d2:	89 44 24 f4          	mov    %eax,-0xc(%rsp)
  4016d6:	8b 44 24 d8          	mov    -0x28(%rsp),%eax
  4016da:	69 c0 3b bd 00 00    	imul   $0xbd3b,%eax,%eax
  4016e0:	89 44 24 d8          	mov    %eax,-0x28(%rsp)
  4016e4:	8b 44 24 e0          	mov    -0x20(%rsp),%eax
  4016e8:	69 c0 fb a7 00 00    	imul   $0xa7fb,%eax,%eax
  4016ee:	89 44 24 e0          	mov    %eax,-0x20(%rsp)
  4016f2:	8b 44 24 d0          	mov    -0x30(%rsp),%eax
  4016f6:	69 c0 a5 fd 00 00    	imul   $0xfda5,%eax,%eax
  4016fc:	89 44 24 d0          	mov    %eax,-0x30(%rsp)
  401700:	8b 44 24 d4          	mov    -0x2c(%rsp),%eax
  401704:	69 c0 b5 db 00 00    	imul   $0xdbb5,%eax,%eax
  40170a:	89 44 24 d4          	mov    %eax,-0x2c(%rsp)
  40170e:	8b 44 24 e4          	mov    -0x1c(%rsp),%eax
  401712:	69 c0 6a 4d 00 00    	imul   $0x4d6a,%eax,%eax
  401718:	89 44 24 e4          	mov    %eax,-0x1c(%rsp)
  40171c:	8b 44 24 d0          	mov    -0x30(%rsp),%eax
  401720:	69 c0 90 a1 00 00    	imul   $0xa190,%eax,%eax
  401726:	89 44 24 d0          	mov    %eax,-0x30(%rsp)
  40172a:	8b 44 24 e0          	mov    -0x20(%rsp),%eax
  40172e:	69 c0 26 f7 00 00    	imul   $0xf726,%eax,%eax
  401734:	89 44 24 e0          	mov    %eax,-0x20(%rsp)
  401738:	8b 44 24 e8          	mov    -0x18(%rsp),%eax
  40173c:	69 c0 d3 0f 00 00    	imul   $0xfd3,%eax,%eax
  401742:	89 44 24 e8          	mov    %eax,-0x18(%rsp)
  401746:	8b 44 24 dc          	mov    -0x24(%rsp),%eax
  40174a:	69 c0 ac 04 00 00    	imul   $0x4ac,%eax,%eax
  401750:	89 44 24 dc          	mov    %eax,-0x24(%rsp)
  401754:	8b 44 24 d4          	mov    -0x2c(%rsp),%eax
  401758:	69 c0 97 f6 00 00    	imul   $0xf697,%eax,%eax
  40175e:	89 44 24 d4          	mov    %eax,-0x2c(%rsp)
  401762:	8b 44 24 d8          	mov    -0x28(%rsp),%eax
  401766:	69 c0 c2 1d 00 00    	imul   $0x1dc2,%eax,%eax
  40176c:	89 44 24 d8          	mov    %eax,-0x28(%rsp)
  401770:	8b 44 24 e0          	mov    -0x20(%rsp),%eax
  401774:	69 c0 b3 02 00 00    	imul   $0x2b3,%eax,%eax
  40177a:	89 44 24 e0          	mov    %eax,-0x20(%rsp)
  40177e:	8b 44 24 e0          	mov    -0x20(%rsp),%eax
  401782:	69 c0 d0 08 00 00    	imul   $0x8d0,%eax,%eax
  401788:	89 44 24 e0          	mov    %eax,-0x20(%rsp)
  40178c:	8b 44 24 d4          	mov    -0x2c(%rsp),%eax
  401790:	69 c0 e2 ec 00 00    	imul   $0xece2,%eax,%eax
  401796:	89 44 24 d4          	mov    %eax,-0x2c(%rsp)
  40179a:	8b 44 24 d0          	mov    -0x30(%rsp),%eax
  40179e:	69 c0 b2 20 00 00    	imul   $0x20b2,%eax,%eax
  4017a4:	89 44 24 d0          	mov    %eax,-0x30(%rsp)
  4017a8:	8b 44 24 d8          	mov    -0x28(%rsp),%eax
  4017ac:	69 c0 22 f6 00 00    	imul   $0xf622,%eax,%eax
  4017b2:	89 44 24 d8          	mov    %eax,-0x28(%rsp)
  4017b6:	8b 44 24 e4          	mov    -0x1c(%rsp),%eax
  4017ba:	69 c0 30 91 00 00    	imul   $0x9130,%eax,%eax
  4017c0:	89 44 24 e4          	mov    %eax,-0x1c(%rsp)
  4017c4:	8b 44 24 f4          	mov    -0xc(%rsp),%eax
  4017c8:	69 c0 18 11 00 00    	imul   $0x1118,%eax,%eax
  4017ce:	89 44 24 f4          	mov    %eax,-0xc(%rsp)
  4017d2:	8b 44 24 d4          	mov    -0x2c(%rsp),%eax
  4017d6:	69 c0 7e 2e 00 00    	imul   $0x2e7e,%eax,%eax
  4017dc:	89 44 24 d4          	mov    %eax,-0x2c(%rsp)
  4017e0:	8b 44 24 d0          	mov    -0x30(%rsp),%eax
  4017e4:	69 c0 cd c0 00 00    	imul   $0xc0cd,%eax,%eax
  4017ea:	89 44 24 d0          	mov    %eax,-0x30(%rsp)
  4017ee:	8b 44 24 dc          	mov    -0x24(%rsp),%eax
  4017f2:	69 c0 fe 25 00 00    	imul   $0x25fe,%eax,%eax
  4017f8:	89 44 24 dc          	mov    %eax,-0x24(%rsp)
  4017fc:	ba 00 00 00 00       	mov    $0x0,%edx
  401801:	b8 00 00 00 00       	mov    $0x0,%eax
  401806:	eb 0b                	jmp    401813 <scramble+0x590>
  401808:	89 d1                	mov    %edx,%ecx
  40180a:	8b 4c 8c d0          	mov    -0x30(%rsp,%rcx,4),%ecx
  40180e:	01 c8                	add    %ecx,%eax
  401810:	83 c2 01             	add    $0x1,%edx
  401813:	83 fa 09             	cmp    $0x9,%edx
  401816:	76 f0                	jbe    401808 <scramble+0x585>
  401818:	f3 c3                	repz retq 

000000000040181a <getbuf>:
  40181a:	48 83 ec 28          	sub    $0x28,%rsp
  40181e:	48 89 e7             	mov    %rsp,%rdi
  401821:	e8 54 03 00 00       	callq  401b7a <Gets>
  401826:	b8 01 00 00 00       	mov    $0x1,%eax
  40182b:	48 83 c4 28          	add    $0x28,%rsp
  40182f:	c3                   	retq   

0000000000401830 <touch1>:
  401830:	48 83 ec 08          	sub    $0x8,%rsp
  401834:	c7 05 9e 3c 20 00 01 	movl   $0x1,0x203c9e(%rip)        # 6054dc <vlevel>
  40183b:	00 00 00 
  40183e:	bf d1 30 40 00       	mov    $0x4030d1,%edi
  401843:	e8 e8 f3 ff ff       	callq  400c30 <puts@plt>
  401848:	bf 01 00 00 00       	mov    $0x1,%edi
  40184d:	e8 17 05 00 00       	callq  401d69 <validate>
  401852:	bf 00 00 00 00       	mov    $0x0,%edi
  401857:	e8 64 f5 ff ff       	callq  400dc0 <exit@plt>

000000000040185c <touch2>:
  40185c:	48 83 ec 08          	sub    $0x8,%rsp
  401860:	89 fe                	mov    %edi,%esi
  401862:	c7 05 70 3c 20 00 02 	movl   $0x2,0x203c70(%rip)        # 6054dc <vlevel>
  401869:	00 00 00 
  40186c:	3b 3d 72 3c 20 00    	cmp    0x203c72(%rip),%edi        # 6054e4 <cookie>
  401872:	75 1b                	jne    40188f <touch2+0x33>
  401874:	bf f8 30 40 00       	mov    $0x4030f8,%edi
  401879:	b8 00 00 00 00       	mov    $0x0,%eax
  40187e:	e8 dd f3 ff ff       	callq  400c60 <printf@plt>
  401883:	bf 02 00 00 00       	mov    $0x2,%edi
  401888:	e8 dc 04 00 00       	callq  401d69 <validate>
  40188d:	eb 19                	jmp    4018a8 <touch2+0x4c>
  40188f:	bf 20 31 40 00       	mov    $0x403120,%edi
  401894:	b8 00 00 00 00       	mov    $0x0,%eax
  401899:	e8 c2 f3 ff ff       	callq  400c60 <printf@plt>
  40189e:	bf 02 00 00 00       	mov    $0x2,%edi
  4018a3:	e8 73 05 00 00       	callq  401e1b <fail>
  4018a8:	bf 00 00 00 00       	mov    $0x0,%edi
  4018ad:	e8 0e f5 ff ff       	callq  400dc0 <exit@plt>

00000000004018b2 <hexmatch>:
  4018b2:	41 54                	push   %r12
  4018b4:	55                   	push   %rbp
  4018b5:	53                   	push   %rbx
  4018b6:	48 83 ec 70          	sub    $0x70,%rsp
  4018ba:	41 89 fc             	mov    %edi,%r12d
  4018bd:	48 89 f5             	mov    %rsi,%rbp
  4018c0:	e8 5b f4 ff ff       	callq  400d20 <random@plt>
  4018c5:	48 89 c1             	mov    %rax,%rcx
  4018c8:	48 ba 0b d7 a3 70 3d 	movabs $0xa3d70a3d70a3d70b,%rdx
  4018cf:	0a d7 a3 
  4018d2:	48 f7 ea             	imul   %rdx
  4018d5:	48 8d 04 0a          	lea    (%rdx,%rcx,1),%rax
  4018d9:	48 c1 f8 06          	sar    $0x6,%rax
  4018dd:	48 89 ce             	mov    %rcx,%rsi
  4018e0:	48 c1 fe 3f          	sar    $0x3f,%rsi
  4018e4:	48 29 f0             	sub    %rsi,%rax
  4018e7:	48 8d 04 80          	lea    (%rax,%rax,4),%rax
  4018eb:	48 8d 04 80          	lea    (%rax,%rax,4),%rax
  4018ef:	48 c1 e0 02          	shl    $0x2,%rax
  4018f3:	48 29 c1             	sub    %rax,%rcx
  4018f6:	48 8d 1c 0c          	lea    (%rsp,%rcx,1),%rbx
  4018fa:	44 89 e2             	mov    %r12d,%edx
  4018fd:	be ee 30 40 00       	mov    $0x4030ee,%esi
  401902:	48 89 df             	mov    %rbx,%rdi
  401905:	b8 00 00 00 00       	mov    $0x0,%eax
  40190a:	e8 a1 f4 ff ff       	callq  400db0 <sprintf@plt>
  40190f:	ba 09 00 00 00       	mov    $0x9,%edx
  401914:	48 89 de             	mov    %rbx,%rsi
  401917:	48 89 ef             	mov    %rbp,%rdi
  40191a:	e8 f1 f2 ff ff       	callq  400c10 <strncmp@plt>
  40191f:	85 c0                	test   %eax,%eax
  401921:	0f 94 c0             	sete   %al
  401924:	0f b6 c0             	movzbl %al,%eax
  401927:	48 83 c4 70          	add    $0x70,%rsp
  40192b:	5b                   	pop    %rbx
  40192c:	5d                   	pop    %rbp
  40192d:	41 5c                	pop    %r12
  40192f:	c3                   	retq   

0000000000401930 <touch3>:
  401930:	53                   	push   %rbx
  401931:	48 89 fb             	mov    %rdi,%rbx
  401934:	c7 05 9e 3b 20 00 03 	movl   $0x3,0x203b9e(%rip)        # 6054dc <vlevel>
  40193b:	00 00 00 
  40193e:	48 89 fe             	mov    %rdi,%rsi
  401941:	8b 3d 9d 3b 20 00    	mov    0x203b9d(%rip),%edi        # 6054e4 <cookie>
  401947:	e8 66 ff ff ff       	callq  4018b2 <hexmatch>
  40194c:	85 c0                	test   %eax,%eax
  40194e:	74 1e                	je     40196e <touch3+0x3e>
  401950:	48 89 de             	mov    %rbx,%rsi
  401953:	bf 48 31 40 00       	mov    $0x403148,%edi
  401958:	b8 00 00 00 00       	mov    $0x0,%eax
  40195d:	e8 fe f2 ff ff       	callq  400c60 <printf@plt>
  401962:	bf 03 00 00 00       	mov    $0x3,%edi
  401967:	e8 fd 03 00 00       	callq  401d69 <validate>
  40196c:	eb 1c                	jmp    40198a <touch3+0x5a>
  40196e:	48 89 de             	mov    %rbx,%rsi
  401971:	bf 70 31 40 00       	mov    $0x403170,%edi
  401976:	b8 00 00 00 00       	mov    $0x0,%eax
  40197b:	e8 e0 f2 ff ff       	callq  400c60 <printf@plt>
  401980:	bf 03 00 00 00       	mov    $0x3,%edi
  401985:	e8 91 04 00 00       	callq  401e1b <fail>
  40198a:	bf 00 00 00 00       	mov    $0x0,%edi
  40198f:	e8 2c f4 ff ff       	callq  400dc0 <exit@plt>

0000000000401994 <test>:
  401994:	48 83 ec 08          	sub    $0x8,%rsp
  401998:	b8 00 00 00 00       	mov    $0x0,%eax
  40199d:	e8 78 fe ff ff       	callq  40181a <getbuf>
  4019a2:	89 c6                	mov    %eax,%esi
  4019a4:	bf 98 31 40 00       	mov    $0x403198,%edi
  4019a9:	b8 00 00 00 00       	mov    $0x0,%eax
  4019ae:	e8 ad f2 ff ff       	callq  400c60 <printf@plt>
  4019b3:	48 83 c4 08          	add    $0x8,%rsp
  4019b7:	c3                   	retq   

00000000004019b8 <start_farm>:
  4019b8:	b8 01 00 00 00       	mov    $0x1,%eax
  4019bd:	c3                   	retq   

00000000004019be <setval_168>:
  4019be:	c7 07 58 90 90 90    	movl   $0x90909058,(%rdi)
  4019c4:	c3                   	retq   

00000000004019c5 <getval_213>:
  4019c5:	b8 48 89 c7 90       	mov    $0x90c78948,%eax
  4019ca:	c3                   	retq   

00000000004019cb <addval_182>:
  4019cb:	8d 87 e2 c7 58 c3    	lea    -0x3ca7381e(%rdi),%eax
  4019d1:	c3                   	retq   

00000000004019d2 <setval_112>:
  4019d2:	c7 07 70 48 99 c7    	movl   $0xc7994870,(%rdi)
  4019d8:	c3                   	retq   

00000000004019d9 <setval_119>:
  4019d9:	c7 07 58 94 90 90    	movl   $0x90909458,(%rdi)
  4019df:	c3                   	retq   

00000000004019e0 <getval_362>:
  4019e0:	b8 48 89 c7 c3       	mov    $0xc3c78948,%eax
  4019e5:	c3                   	retq   

00000000004019e6 <setval_340>:
  4019e6:	c7 07 48 a9 c7 c3    	movl   $0xc3c7a948,(%rdi)
  4019ec:	c3                   	retq   

00000000004019ed <addval_382>:
  4019ed:	8d 87 50 46 58 94    	lea    -0x6ba7b9b0(%rdi),%eax
  4019f3:	c3                   	retq   

00000000004019f4 <mid_farm>:
  4019f4:	b8 01 00 00 00       	mov    $0x1,%eax
  4019f9:	c3                   	retq   

00000000004019fa <add_xy>:
  4019fa:	48 8d 04 37          	lea    (%rdi,%rsi,1),%rax
  4019fe:	c3                   	retq   

00000000004019ff <setval_101>:
  4019ff:	c7 07 81 d1 20 d2    	movl   $0xd220d181,(%rdi)
  401a05:	c3                   	retq   

0000000000401a06 <addval_186>:
  401a06:	8d 87 26 48 89 e0    	lea    -0x1f76b7da(%rdi),%eax
  401a0c:	c3                   	retq   

0000000000401a0d <getval_364>:
  401a0d:	b8 8d c2 90 c3       	mov    $0xc390c28d,%eax
  401a12:	c3                   	retq   

0000000000401a13 <getval_224>:
  401a13:	b8 89 c2 28 c9       	mov    $0xc928c289,%eax
  401a18:	c3                   	retq   

0000000000401a19 <getval_187>:
  401a19:	b8 89 c2 28 db       	mov    $0xdb28c289,%eax
  401a1e:	c3                   	retq   

0000000000401a1f <addval_137>:
  401a1f:	8d 87 88 c2 84 d2    	lea    -0x2d7b3d78(%rdi),%eax
  401a25:	c3                   	retq   

0000000000401a26 <addval_181>:
  401a26:	8d 87 a9 d1 c3 f9    	lea    -0x63c2e57(%rdi),%eax
  401a2c:	c3                   	retq   

0000000000401a2d <setval_228>:
  401a2d:	c7 07 89 ce 08 d2    	movl   $0xd208ce89,(%rdi)
  401a33:	c3                   	retq   

0000000000401a34 <setval_413>:
  401a34:	c7 07 81 ce 08 d2    	movl   $0xd208ce81,(%rdi)
  401a3a:	c3                   	retq   

0000000000401a3b <getval_430>:
  401a3b:	b8 40 89 e0 90       	mov    $0x90e08940,%eax
  401a40:	c3                   	retq   

0000000000401a41 <getval_192>:
  401a41:	b8 89 c2 28 d2       	mov    $0xd228c289,%eax
  401a46:	c3                   	retq   

0000000000401a47 <getval_156>:
  401a47:	b8 89 ce 60 db       	mov    $0xdb60ce89,%eax
  401a4c:	c3                   	retq   

0000000000401a4d <addval_342>:
  401a4d:	8d 87 a4 4c 89 e0    	lea    -0x1f76b35c(%rdi),%eax
  401a53:	c3                   	retq   

0000000000401a54 <setval_147>:
  401a54:	c7 07 48 89 e0 c7    	movl   $0xc7e08948,(%rdi)
  401a5a:	c3                   	retq   

0000000000401a5b <getval_424>:
  401a5b:	b8 04 89 d1 c1       	mov    $0xc1d18904,%eax
  401a60:	c3                   	retq   

0000000000401a61 <getval_219>:
  401a61:	b8 8d c2 08 c9       	mov    $0xc908c28d,%eax
  401a66:	c3                   	retq   

0000000000401a67 <setval_153>:
  401a67:	c7 07 c9 d1 90 c3    	movl   $0xc390d1c9,(%rdi)
  401a6d:	c3                   	retq   

0000000000401a6e <setval_348>:
  401a6e:	c7 07 89 ce c7 e3    	movl   $0xe3c7ce89,(%rdi)
  401a74:	c3                   	retq   

0000000000401a75 <getval_378>:
  401a75:	b8 48 89 e0 c7       	mov    $0xc7e08948,%eax
  401a7a:	c3                   	retq   

0000000000401a7b <getval_245>:
  401a7b:	b8 89 d1 18 db       	mov    $0xdb18d189,%eax
  401a80:	c3                   	retq   

0000000000401a81 <setval_467>:
  401a81:	c7 07 89 d1 20 d2    	movl   $0xd220d189,(%rdi)
  401a87:	c3                   	retq   

0000000000401a88 <getval_143>:
  401a88:	b8 a3 40 89 e0       	mov    $0xe08940a3,%eax
  401a8d:	c3                   	retq   

0000000000401a8e <addval_272>:
  401a8e:	8d 87 46 89 c2 c3    	lea    -0x3c3d76ba(%rdi),%eax
  401a94:	c3                   	retq   

0000000000401a95 <setval_472>:
  401a95:	c7 07 a9 ce 84 d2    	movl   $0xd284cea9,(%rdi)
  401a9b:	c3                   	retq   

0000000000401a9c <setval_282>:
  401a9c:	c7 07 48 8d e0 90    	movl   $0x90e08d48,(%rdi)
  401aa2:	c3                   	retq   

0000000000401aa3 <setval_387>:
  401aa3:	c7 07 89 c2 20 db    	movl   $0xdb20c289,(%rdi)
  401aa9:	c3                   	retq   

0000000000401aaa <getval_469>:
  401aaa:	b8 89 ce 91 c3       	mov    $0xc391ce89,%eax
  401aaf:	c3                   	retq   

0000000000401ab0 <addval_154>:
  401ab0:	8d 87 8d ce 20 d2    	lea    -0x2ddf3173(%rdi),%eax
  401ab6:	c3                   	retq   

0000000000401ab7 <addval_403>:
  401ab7:	8d 87 89 ce 38 d2    	lea    -0x2dc73177(%rdi),%eax
  401abd:	c3                   	retq   

0000000000401abe <addval_429>:
  401abe:	8d 87 89 d1 84 db    	lea    -0x247b2e77(%rdi),%eax
  401ac4:	c3                   	retq   

0000000000401ac5 <getval_169>:
  401ac5:	b8 1b 89 d1 92       	mov    $0x92d1891b,%eax
  401aca:	c3                   	retq   

0000000000401acb <setval_311>:
  401acb:	c7 07 48 89 e0 c3    	movl   $0xc3e08948,(%rdi)
  401ad1:	c3                   	retq   

0000000000401ad2 <end_farm>:
  401ad2:	b8 01 00 00 00       	mov    $0x1,%eax
  401ad7:	c3                   	retq   
  401ad8:	0f 1f 84 00 00 00 00 	nopl   0x0(%rax,%rax,1)
  401adf:	00 

0000000000401ae0 <save_char>:
  401ae0:	8b 05 1e 46 20 00    	mov    0x20461e(%rip),%eax        # 606104 <gets_cnt>
  401ae6:	3d ff 03 00 00       	cmp    $0x3ff,%eax
  401aeb:	7f 49                	jg     401b36 <save_char+0x56>
  401aed:	8d 14 40             	lea    (%rax,%rax,2),%edx
  401af0:	89 f9                	mov    %edi,%ecx
  401af2:	c0 e9 04             	shr    $0x4,%cl
  401af5:	83 e1 0f             	and    $0xf,%ecx
  401af8:	0f b6 b1 c0 34 40 00 	movzbl 0x4034c0(%rcx),%esi
  401aff:	48 63 ca             	movslq %edx,%rcx
  401b02:	40 88 b1 00 55 60 00 	mov    %sil,0x605500(%rcx)
  401b09:	8d 4a 01             	lea    0x1(%rdx),%ecx
  401b0c:	83 e7 0f             	and    $0xf,%edi
  401b0f:	0f b6 b7 c0 34 40 00 	movzbl 0x4034c0(%rdi),%esi
  401b16:	48 63 c9             	movslq %ecx,%rcx
  401b19:	40 88 b1 00 55 60 00 	mov    %sil,0x605500(%rcx)
  401b20:	83 c2 02             	add    $0x2,%edx
  401b23:	48 63 d2             	movslq %edx,%rdx
  401b26:	c6 82 00 55 60 00 20 	movb   $0x20,0x605500(%rdx)
  401b2d:	83 c0 01             	add    $0x1,%eax
  401b30:	89 05 ce 45 20 00    	mov    %eax,0x2045ce(%rip)        # 606104 <gets_cnt>
  401b36:	f3 c3                	repz retq 

0000000000401b38 <save_term>:
  401b38:	8b 05 c6 45 20 00    	mov    0x2045c6(%rip),%eax        # 606104 <gets_cnt>
  401b3e:	8d 04 40             	lea    (%rax,%rax,2),%eax
  401b41:	48 98                	cltq   
  401b43:	c6 80 00 55 60 00 00 	movb   $0x0,0x605500(%rax)
  401b4a:	c3                   	retq   

0000000000401b4b <check_fail>:
  401b4b:	48 83 ec 08          	sub    $0x8,%rsp
  401b4f:	0f be 35 b2 45 20 00 	movsbl 0x2045b2(%rip),%esi        # 606108 <target_prefix>
  401b56:	b9 00 55 60 00       	mov    $0x605500,%ecx
  401b5b:	8b 15 77 39 20 00    	mov    0x203977(%rip),%edx        # 6054d8 <check_level>
  401b61:	bf bb 31 40 00       	mov    $0x4031bb,%edi
  401b66:	b8 00 00 00 00       	mov    $0x0,%eax
  401b6b:	e8 f0 f0 ff ff       	callq  400c60 <printf@plt>
  401b70:	bf 01 00 00 00       	mov    $0x1,%edi
  401b75:	e8 46 f2 ff ff       	callq  400dc0 <exit@plt>

0000000000401b7a <Gets>:
  401b7a:	41 54                	push   %r12
  401b7c:	55                   	push   %rbp
  401b7d:	53                   	push   %rbx
  401b7e:	49 89 fc             	mov    %rdi,%r12
  401b81:	c7 05 79 45 20 00 00 	movl   $0x0,0x204579(%rip)        # 606104 <gets_cnt>
  401b88:	00 00 00 
  401b8b:	48 89 fb             	mov    %rdi,%rbx
  401b8e:	eb 11                	jmp    401ba1 <Gets+0x27>
  401b90:	48 8d 6b 01          	lea    0x1(%rbx),%rbp
  401b94:	88 03                	mov    %al,(%rbx)
  401b96:	0f b6 f8             	movzbl %al,%edi
  401b99:	e8 42 ff ff ff       	callq  401ae0 <save_char>
  401b9e:	48 89 eb             	mov    %rbp,%rbx
  401ba1:	48 8b 3d 28 39 20 00 	mov    0x203928(%rip),%rdi        # 6054d0 <infile>
  401ba8:	e8 83 f1 ff ff       	callq  400d30 <_IO_getc@plt>
  401bad:	83 f8 ff             	cmp    $0xffffffff,%eax
  401bb0:	74 05                	je     401bb7 <Gets+0x3d>
  401bb2:	83 f8 0a             	cmp    $0xa,%eax
  401bb5:	75 d9                	jne    401b90 <Gets+0x16>
  401bb7:	c6 03 00             	movb   $0x0,(%rbx)
  401bba:	b8 00 00 00 00       	mov    $0x0,%eax
  401bbf:	e8 74 ff ff ff       	callq  401b38 <save_term>
  401bc4:	4c 89 e0             	mov    %r12,%rax
  401bc7:	5b                   	pop    %rbx
  401bc8:	5d                   	pop    %rbp
  401bc9:	41 5c                	pop    %r12
  401bcb:	c3                   	retq   

0000000000401bcc <notify_server>:
  401bcc:	83 3d 15 39 20 00 00 	cmpl   $0x0,0x203915(%rip)        # 6054e8 <is_checker>
  401bd3:	0f 85 8e 01 00 00    	jne    401d67 <notify_server+0x19b>
  401bd9:	53                   	push   %rbx
  401bda:	48 81 ec 10 40 00 00 	sub    $0x4010,%rsp
  401be1:	89 fb                	mov    %edi,%ebx
  401be3:	8b 05 1b 45 20 00    	mov    0x20451b(%rip),%eax        # 606104 <gets_cnt>
  401be9:	83 c0 64             	add    $0x64,%eax
  401bec:	3d 00 20 00 00       	cmp    $0x2000,%eax
  401bf1:	7e 19                	jle    401c0c <notify_server+0x40>
  401bf3:	bf f0 32 40 00       	mov    $0x4032f0,%edi
  401bf8:	b8 00 00 00 00       	mov    $0x0,%eax
  401bfd:	e8 5e f0 ff ff       	callq  400c60 <printf@plt>
  401c02:	bf 01 00 00 00       	mov    $0x1,%edi
  401c07:	e8 b4 f1 ff ff       	callq  400dc0 <exit@plt>
  401c0c:	44 0f be 0d f4 44 20 	movsbl 0x2044f4(%rip),%r9d        # 606108 <target_prefix>
  401c13:	00 
  401c14:	83 3d 6d 38 20 00 00 	cmpl   $0x0,0x20386d(%rip)        # 605488 <notify>
  401c1b:	74 09                	je     401c26 <notify_server+0x5a>
  401c1d:	44 8b 05 bc 38 20 00 	mov    0x2038bc(%rip),%r8d        # 6054e0 <authkey>
  401c24:	eb 06                	jmp    401c2c <notify_server+0x60>
  401c26:	41 b8 ff ff ff ff    	mov    $0xffffffff,%r8d
  401c2c:	85 db                	test   %ebx,%ebx
  401c2e:	74 07                	je     401c37 <notify_server+0x6b>
  401c30:	b9 d1 31 40 00       	mov    $0x4031d1,%ecx
  401c35:	eb 05                	jmp    401c3c <notify_server+0x70>
  401c37:	b9 d6 31 40 00       	mov    $0x4031d6,%ecx
  401c3c:	48 c7 44 24 08 00 55 	movq   $0x605500,0x8(%rsp)
  401c43:	60 00 
  401c45:	89 34 24             	mov    %esi,(%rsp)
  401c48:	8b 15 fa 34 20 00    	mov    0x2034fa(%rip),%edx        # 605148 <target_id>
  401c4e:	be db 31 40 00       	mov    $0x4031db,%esi
  401c53:	48 8d bc 24 10 20 00 	lea    0x2010(%rsp),%rdi
  401c5a:	00 
  401c5b:	b8 00 00 00 00       	mov    $0x0,%eax
  401c60:	e8 4b f1 ff ff       	callq  400db0 <sprintf@plt>
  401c65:	83 3d 1c 38 20 00 00 	cmpl   $0x0,0x20381c(%rip)        # 605488 <notify>
  401c6c:	74 78                	je     401ce6 <notify_server+0x11a>
  401c6e:	85 db                	test   %ebx,%ebx
  401c70:	74 68                	je     401cda <notify_server+0x10e>
  401c72:	4c 8d 4c 24 10       	lea    0x10(%rsp),%r9
  401c77:	41 b8 00 00 00 00    	mov    $0x0,%r8d
  401c7d:	48 8d 8c 24 10 20 00 	lea    0x2010(%rsp),%rcx
  401c84:	00 
  401c85:	48 8b 15 c4 34 20 00 	mov    0x2034c4(%rip),%rdx        # 605150 <lab>
  401c8c:	48 8b 35 c5 34 20 00 	mov    0x2034c5(%rip),%rsi        # 605158 <course>
  401c93:	48 8b 3d a6 34 20 00 	mov    0x2034a6(%rip),%rdi        # 605140 <user_id>
  401c9a:	e8 94 0f 00 00       	callq  402c33 <driver_post>
  401c9f:	85 c0                	test   %eax,%eax
  401ca1:	79 1e                	jns    401cc1 <notify_server+0xf5>
  401ca3:	48 8d 74 24 10       	lea    0x10(%rsp),%rsi
  401ca8:	bf f7 31 40 00       	mov    $0x4031f7,%edi
  401cad:	b8 00 00 00 00       	mov    $0x0,%eax
  401cb2:	e8 a9 ef ff ff       	callq  400c60 <printf@plt>
  401cb7:	bf 01 00 00 00       	mov    $0x1,%edi
  401cbc:	e8 ff f0 ff ff       	callq  400dc0 <exit@plt>
  401cc1:	bf 20 33 40 00       	mov    $0x403320,%edi
  401cc6:	e8 65 ef ff ff       	callq  400c30 <puts@plt>
  401ccb:	bf 03 32 40 00       	mov    $0x403203,%edi
  401cd0:	e8 5b ef ff ff       	callq  400c30 <puts@plt>
  401cd5:	e9 85 00 00 00       	jmpq   401d5f <notify_server+0x193>
  401cda:	bf 0d 32 40 00       	mov    $0x40320d,%edi
  401cdf:	e8 4c ef ff ff       	callq  400c30 <puts@plt>
  401ce4:	eb 79                	jmp    401d5f <notify_server+0x193>
  401ce6:	85 db                	test   %ebx,%ebx
  401ce8:	74 08                	je     401cf2 <notify_server+0x126>
  401cea:	be d1 31 40 00       	mov    $0x4031d1,%esi
  401cef:	90                   	nop
  401cf0:	eb 05                	jmp    401cf7 <notify_server+0x12b>
  401cf2:	be d6 31 40 00       	mov    $0x4031d6,%esi
  401cf7:	bf 58 33 40 00       	mov    $0x403358,%edi
  401cfc:	b8 00 00 00 00       	mov    $0x0,%eax
  401d01:	e8 5a ef ff ff       	callq  400c60 <printf@plt>
  401d06:	48 8b 35 33 34 20 00 	mov    0x203433(%rip),%rsi        # 605140 <user_id>
  401d0d:	bf 14 32 40 00       	mov    $0x403214,%edi
  401d12:	b8 00 00 00 00       	mov    $0x0,%eax
  401d17:	e8 44 ef ff ff       	callq  400c60 <printf@plt>
  401d1c:	48 8b 35 35 34 20 00 	mov    0x203435(%rip),%rsi        # 605158 <course>
  401d23:	bf 21 32 40 00       	mov    $0x403221,%edi
  401d28:	b8 00 00 00 00       	mov    $0x0,%eax
  401d2d:	e8 2e ef ff ff       	callq  400c60 <printf@plt>
  401d32:	48 8b 35 17 34 20 00 	mov    0x203417(%rip),%rsi        # 605150 <lab>
  401d39:	bf 2d 32 40 00       	mov    $0x40322d,%edi
  401d3e:	b8 00 00 00 00       	mov    $0x0,%eax
  401d43:	e8 18 ef ff ff       	callq  400c60 <printf@plt>
  401d48:	48 8d b4 24 10 20 00 	lea    0x2010(%rsp),%rsi
  401d4f:	00 
  401d50:	bf 36 32 40 00       	mov    $0x403236,%edi
  401d55:	b8 00 00 00 00       	mov    $0x0,%eax
  401d5a:	e8 01 ef ff ff       	callq  400c60 <printf@plt>
  401d5f:	48 81 c4 10 40 00 00 	add    $0x4010,%rsp
  401d66:	5b                   	pop    %rbx
  401d67:	f3 c3                	repz retq 

0000000000401d69 <validate>:
  401d69:	53                   	push   %rbx
  401d6a:	89 fb                	mov    %edi,%ebx
  401d6c:	83 3d 75 37 20 00 00 	cmpl   $0x0,0x203775(%rip)        # 6054e8 <is_checker>
  401d73:	74 60                	je     401dd5 <validate+0x6c>
  401d75:	39 3d 61 37 20 00    	cmp    %edi,0x203761(%rip)        # 6054dc <vlevel>
  401d7b:	74 14                	je     401d91 <validate+0x28>
  401d7d:	bf 42 32 40 00       	mov    $0x403242,%edi
  401d82:	e8 a9 ee ff ff       	callq  400c30 <puts@plt>
  401d87:	b8 00 00 00 00       	mov    $0x0,%eax
  401d8c:	e8 ba fd ff ff       	callq  401b4b <check_fail>
  401d91:	8b 35 41 37 20 00    	mov    0x203741(%rip),%esi        # 6054d8 <check_level>
  401d97:	39 fe                	cmp    %edi,%esi
  401d99:	74 1b                	je     401db6 <validate+0x4d>
  401d9b:	89 fa                	mov    %edi,%edx
  401d9d:	bf 80 33 40 00       	mov    $0x403380,%edi
  401da2:	b8 00 00 00 00       	mov    $0x0,%eax
  401da7:	e8 b4 ee ff ff       	callq  400c60 <printf@plt>
  401dac:	b8 00 00 00 00       	mov    $0x0,%eax
  401db1:	e8 95 fd ff ff       	callq  401b4b <check_fail>
  401db6:	0f be 35 4b 43 20 00 	movsbl 0x20434b(%rip),%esi        # 606108 <target_prefix>
  401dbd:	b9 00 55 60 00       	mov    $0x605500,%ecx
  401dc2:	89 fa                	mov    %edi,%edx
  401dc4:	bf 60 32 40 00       	mov    $0x403260,%edi
  401dc9:	b8 00 00 00 00       	mov    $0x0,%eax
  401dce:	e8 8d ee ff ff       	callq  400c60 <printf@plt>
  401dd3:	eb 44                	jmp    401e19 <validate+0xb0>
  401dd5:	39 3d 01 37 20 00    	cmp    %edi,0x203701(%rip)        # 6054dc <vlevel>
  401ddb:	74 18                	je     401df5 <validate+0x8c>
  401ddd:	bf 42 32 40 00       	mov    $0x403242,%edi
  401de2:	e8 49 ee ff ff       	callq  400c30 <puts@plt>
  401de7:	89 de                	mov    %ebx,%esi
  401de9:	bf 00 00 00 00       	mov    $0x0,%edi
  401dee:	e8 d9 fd ff ff       	callq  401bcc <notify_server>
  401df3:	eb 24                	jmp    401e19 <validate+0xb0>
  401df5:	0f be 15 0c 43 20 00 	movsbl 0x20430c(%rip),%edx        # 606108 <target_prefix>
  401dfc:	89 fe                	mov    %edi,%esi
  401dfe:	bf a8 33 40 00       	mov    $0x4033a8,%edi
  401e03:	b8 00 00 00 00       	mov    $0x0,%eax
  401e08:	e8 53 ee ff ff       	callq  400c60 <printf@plt>
  401e0d:	89 de                	mov    %ebx,%esi
  401e0f:	bf 01 00 00 00       	mov    $0x1,%edi
  401e14:	e8 b3 fd ff ff       	callq  401bcc <notify_server>
  401e19:	5b                   	pop    %rbx
  401e1a:	c3                   	retq   

0000000000401e1b <fail>:
  401e1b:	48 83 ec 08          	sub    $0x8,%rsp
  401e1f:	83 3d c2 36 20 00 00 	cmpl   $0x0,0x2036c2(%rip)        # 6054e8 <is_checker>
  401e26:	74 0a                	je     401e32 <fail+0x17>
  401e28:	b8 00 00 00 00       	mov    $0x0,%eax
  401e2d:	e8 19 fd ff ff       	callq  401b4b <check_fail>
  401e32:	89 fe                	mov    %edi,%esi
  401e34:	bf 00 00 00 00       	mov    $0x0,%edi
  401e39:	e8 8e fd ff ff       	callq  401bcc <notify_server>
  401e3e:	48 83 c4 08          	add    $0x8,%rsp
  401e42:	c3                   	retq   

0000000000401e43 <bushandler>:
  401e43:	48 83 ec 08          	sub    $0x8,%rsp
  401e47:	83 3d 9a 36 20 00 00 	cmpl   $0x0,0x20369a(%rip)        # 6054e8 <is_checker>
  401e4e:	74 14                	je     401e64 <bushandler+0x21>
  401e50:	bf 75 32 40 00       	mov    $0x403275,%edi
  401e55:	e8 d6 ed ff ff       	callq  400c30 <puts@plt>
  401e5a:	b8 00 00 00 00       	mov    $0x0,%eax
  401e5f:	e8 e7 fc ff ff       	callq  401b4b <check_fail>
  401e64:	bf e0 33 40 00       	mov    $0x4033e0,%edi
  401e69:	e8 c2 ed ff ff       	callq  400c30 <puts@plt>
  401e6e:	bf 7f 32 40 00       	mov    $0x40327f,%edi
  401e73:	e8 b8 ed ff ff       	callq  400c30 <puts@plt>
  401e78:	be 00 00 00 00       	mov    $0x0,%esi
  401e7d:	bf 00 00 00 00       	mov    $0x0,%edi
  401e82:	e8 45 fd ff ff       	callq  401bcc <notify_server>
  401e87:	bf 01 00 00 00       	mov    $0x1,%edi
  401e8c:	e8 2f ef ff ff       	callq  400dc0 <exit@plt>

0000000000401e91 <seghandler>:
  401e91:	48 83 ec 08          	sub    $0x8,%rsp
  401e95:	83 3d 4c 36 20 00 00 	cmpl   $0x0,0x20364c(%rip)        # 6054e8 <is_checker>
  401e9c:	74 14                	je     401eb2 <seghandler+0x21>
  401e9e:	bf 95 32 40 00       	mov    $0x403295,%edi
  401ea3:	e8 88 ed ff ff       	callq  400c30 <puts@plt>
  401ea8:	b8 00 00 00 00       	mov    $0x0,%eax
  401ead:	e8 99 fc ff ff       	callq  401b4b <check_fail>
  401eb2:	bf 00 34 40 00       	mov    $0x403400,%edi
  401eb7:	e8 74 ed ff ff       	callq  400c30 <puts@plt>
  401ebc:	bf 7f 32 40 00       	mov    $0x40327f,%edi
  401ec1:	e8 6a ed ff ff       	callq  400c30 <puts@plt>
  401ec6:	be 00 00 00 00       	mov    $0x0,%esi
  401ecb:	bf 00 00 00 00       	mov    $0x0,%edi
  401ed0:	e8 f7 fc ff ff       	callq  401bcc <notify_server>
  401ed5:	bf 01 00 00 00       	mov    $0x1,%edi
  401eda:	e8 e1 ee ff ff       	callq  400dc0 <exit@plt>

0000000000401edf <illegalhandler>:
  401edf:	48 83 ec 08          	sub    $0x8,%rsp
  401ee3:	83 3d fe 35 20 00 00 	cmpl   $0x0,0x2035fe(%rip)        # 6054e8 <is_checker>
  401eea:	74 14                	je     401f00 <illegalhandler+0x21>
  401eec:	bf a8 32 40 00       	mov    $0x4032a8,%edi
  401ef1:	e8 3a ed ff ff       	callq  400c30 <puts@plt>
  401ef6:	b8 00 00 00 00       	mov    $0x0,%eax
  401efb:	e8 4b fc ff ff       	callq  401b4b <check_fail>
  401f00:	bf 28 34 40 00       	mov    $0x403428,%edi
  401f05:	e8 26 ed ff ff       	callq  400c30 <puts@plt>
  401f0a:	bf 7f 32 40 00       	mov    $0x40327f,%edi
  401f0f:	e8 1c ed ff ff       	callq  400c30 <puts@plt>
  401f14:	be 00 00 00 00       	mov    $0x0,%esi
  401f19:	bf 00 00 00 00       	mov    $0x0,%edi
  401f1e:	e8 a9 fc ff ff       	callq  401bcc <notify_server>
  401f23:	bf 01 00 00 00       	mov    $0x1,%edi
  401f28:	e8 93 ee ff ff       	callq  400dc0 <exit@plt>

0000000000401f2d <sigalrmhandler>:
  401f2d:	48 83 ec 08          	sub    $0x8,%rsp
  401f31:	83 3d b0 35 20 00 00 	cmpl   $0x0,0x2035b0(%rip)        # 6054e8 <is_checker>
  401f38:	74 14                	je     401f4e <sigalrmhandler+0x21>
  401f3a:	bf bc 32 40 00       	mov    $0x4032bc,%edi
  401f3f:	e8 ec ec ff ff       	callq  400c30 <puts@plt>
  401f44:	b8 00 00 00 00       	mov    $0x0,%eax
  401f49:	e8 fd fb ff ff       	callq  401b4b <check_fail>
  401f4e:	be 05 00 00 00       	mov    $0x5,%esi
  401f53:	bf 58 34 40 00       	mov    $0x403458,%edi
  401f58:	b8 00 00 00 00       	mov    $0x0,%eax
  401f5d:	e8 fe ec ff ff       	callq  400c60 <printf@plt>
  401f62:	be 00 00 00 00       	mov    $0x0,%esi
  401f67:	bf 00 00 00 00       	mov    $0x0,%edi
  401f6c:	e8 5b fc ff ff       	callq  401bcc <notify_server>
  401f71:	bf 01 00 00 00       	mov    $0x1,%edi
  401f76:	e8 45 ee ff ff       	callq  400dc0 <exit@plt>

0000000000401f7b <launch>:
  401f7b:	55                   	push   %rbp
  401f7c:	48 89 e5             	mov    %rsp,%rbp
  401f7f:	48 89 fa             	mov    %rdi,%rdx
  401f82:	48 8d 47 1e          	lea    0x1e(%rdi),%rax
  401f86:	48 83 e0 f0          	and    $0xfffffffffffffff0,%rax
  401f8a:	48 29 c4             	sub    %rax,%rsp
  401f8d:	48 8d 7c 24 0f       	lea    0xf(%rsp),%rdi
  401f92:	48 83 e7 f0          	and    $0xfffffffffffffff0,%rdi
  401f96:	be f4 00 00 00       	mov    $0xf4,%esi
  401f9b:	e8 d0 ec ff ff       	callq  400c70 <memset@plt>
  401fa0:	48 8b 05 f9 34 20 00 	mov    0x2034f9(%rip),%rax        # 6054a0 <stdin@@GLIBC_2.2.5>
  401fa7:	48 39 05 22 35 20 00 	cmp    %rax,0x203522(%rip)        # 6054d0 <infile>
  401fae:	75 0f                	jne    401fbf <launch+0x44>
  401fb0:	bf c4 32 40 00       	mov    $0x4032c4,%edi
  401fb5:	b8 00 00 00 00       	mov    $0x0,%eax
  401fba:	e8 a1 ec ff ff       	callq  400c60 <printf@plt>
  401fbf:	c7 05 13 35 20 00 00 	movl   $0x0,0x203513(%rip)        # 6054dc <vlevel>
  401fc6:	00 00 00 
  401fc9:	b8 00 00 00 00       	mov    $0x0,%eax
  401fce:	e8 c1 f9 ff ff       	callq  401994 <test>
  401fd3:	83 3d 0e 35 20 00 00 	cmpl   $0x0,0x20350e(%rip)        # 6054e8 <is_checker>
  401fda:	74 14                	je     401ff0 <launch+0x75>
  401fdc:	bf d1 32 40 00       	mov    $0x4032d1,%edi
  401fe1:	e8 4a ec ff ff       	callq  400c30 <puts@plt>
  401fe6:	b8 00 00 00 00       	mov    $0x0,%eax
  401feb:	e8 5b fb ff ff       	callq  401b4b <check_fail>
  401ff0:	bf dc 32 40 00       	mov    $0x4032dc,%edi
  401ff5:	e8 36 ec ff ff       	callq  400c30 <puts@plt>
  401ffa:	c9                   	leaveq 
  401ffb:	c3                   	retq   

0000000000401ffc <stable_launch>:
  401ffc:	53                   	push   %rbx
  401ffd:	48 89 3d c4 34 20 00 	mov    %rdi,0x2034c4(%rip)        # 6054c8 <global_offset>
  402004:	41 b9 00 00 00 00    	mov    $0x0,%r9d
  40200a:	41 b8 00 00 00 00    	mov    $0x0,%r8d
  402010:	b9 32 01 00 00       	mov    $0x132,%ecx
  402015:	ba 07 00 00 00       	mov    $0x7,%edx
  40201a:	be 00 00 10 00       	mov    $0x100000,%esi
  40201f:	bf 00 60 58 55       	mov    $0x55586000,%edi
  402024:	e8 27 ec ff ff       	callq  400c50 <mmap@plt>
  402029:	48 89 c3             	mov    %rax,%rbx
  40202c:	48 3d 00 60 58 55    	cmp    $0x55586000,%rax
  402032:	74 32                	je     402066 <stable_launch+0x6a>
  402034:	be 00 00 10 00       	mov    $0x100000,%esi
  402039:	48 89 c7             	mov    %rax,%rdi
  40203c:	e8 0f ed ff ff       	callq  400d50 <munmap@plt>
  402041:	ba 00 60 58 55       	mov    $0x55586000,%edx
  402046:	be 90 34 40 00       	mov    $0x403490,%esi
  40204b:	48 8b 3d 5e 34 20 00 	mov    0x20345e(%rip),%rdi        # 6054b0 <stderr@@GLIBC_2.2.5>
  402052:	b8 00 00 00 00       	mov    $0x0,%eax
  402057:	e8 84 ec ff ff       	callq  400ce0 <fprintf@plt>
  40205c:	bf 01 00 00 00       	mov    $0x1,%edi
  402061:	e8 5a ed ff ff       	callq  400dc0 <exit@plt>
  402066:	48 8d 90 f8 ff 0f 00 	lea    0xffff8(%rax),%rdx
  40206d:	48 89 15 9c 40 20 00 	mov    %rdx,0x20409c(%rip)        # 606110 <stack_top>
  402074:	48 89 e0             	mov    %rsp,%rax
  402077:	48 89 d4             	mov    %rdx,%rsp
  40207a:	48 89 c2             	mov    %rax,%rdx
  40207d:	48 89 15 3c 34 20 00 	mov    %rdx,0x20343c(%rip)        # 6054c0 <global_save_stack>
  402084:	48 8b 3d 3d 34 20 00 	mov    0x20343d(%rip),%rdi        # 6054c8 <global_offset>
  40208b:	e8 eb fe ff ff       	callq  401f7b <launch>
  402090:	48 8b 05 29 34 20 00 	mov    0x203429(%rip),%rax        # 6054c0 <global_save_stack>
  402097:	48 89 c4             	mov    %rax,%rsp
  40209a:	be 00 00 10 00       	mov    $0x100000,%esi
  40209f:	48 89 df             	mov    %rbx,%rdi
  4020a2:	e8 a9 ec ff ff       	callq  400d50 <munmap@plt>
  4020a7:	5b                   	pop    %rbx
  4020a8:	c3                   	retq   
  4020a9:	0f 1f 80 00 00 00 00 	nopl   0x0(%rax)

00000000004020b0 <rio_readinitb>:
  4020b0:	89 37                	mov    %esi,(%rdi)
  4020b2:	c7 47 04 00 00 00 00 	movl   $0x0,0x4(%rdi)
  4020b9:	48 8d 47 10          	lea    0x10(%rdi),%rax
  4020bd:	48 89 47 08          	mov    %rax,0x8(%rdi)
  4020c1:	c3                   	retq   

00000000004020c2 <sigalrm_handler>:
  4020c2:	48 83 ec 08          	sub    $0x8,%rsp
  4020c6:	ba 00 00 00 00       	mov    $0x0,%edx
  4020cb:	be d0 34 40 00       	mov    $0x4034d0,%esi
  4020d0:	48 8b 3d d9 33 20 00 	mov    0x2033d9(%rip),%rdi        # 6054b0 <stderr@@GLIBC_2.2.5>
  4020d7:	b8 00 00 00 00       	mov    $0x0,%eax
  4020dc:	e8 ff eb ff ff       	callq  400ce0 <fprintf@plt>
  4020e1:	bf 01 00 00 00       	mov    $0x1,%edi
  4020e6:	e8 d5 ec ff ff       	callq  400dc0 <exit@plt>

00000000004020eb <urlencode>:
  4020eb:	41 54                	push   %r12
  4020ed:	55                   	push   %rbp
  4020ee:	53                   	push   %rbx
  4020ef:	48 83 ec 10          	sub    $0x10,%rsp
  4020f3:	48 89 fb             	mov    %rdi,%rbx
  4020f6:	48 89 f5             	mov    %rsi,%rbp
  4020f9:	b8 00 00 00 00       	mov    $0x0,%eax
  4020fe:	48 c7 c1 ff ff ff ff 	mov    $0xffffffffffffffff,%rcx
  402105:	f2 ae                	repnz scas %es:(%rdi),%al
  402107:	48 f7 d1             	not    %rcx
  40210a:	8d 41 ff             	lea    -0x1(%rcx),%eax
  40210d:	e9 93 00 00 00       	jmpq   4021a5 <urlencode+0xba>
  402112:	0f b6 13             	movzbl (%rbx),%edx
  402115:	80 fa 2a             	cmp    $0x2a,%dl
  402118:	0f 94 c1             	sete   %cl
  40211b:	80 fa 2d             	cmp    $0x2d,%dl
  40211e:	0f 94 c0             	sete   %al
  402121:	08 c1                	or     %al,%cl
  402123:	75 1f                	jne    402144 <urlencode+0x59>
  402125:	80 fa 2e             	cmp    $0x2e,%dl
  402128:	74 1a                	je     402144 <urlencode+0x59>
  40212a:	80 fa 5f             	cmp    $0x5f,%dl
  40212d:	74 15                	je     402144 <urlencode+0x59>
  40212f:	8d 42 d0             	lea    -0x30(%rdx),%eax
  402132:	3c 09                	cmp    $0x9,%al
  402134:	76 0e                	jbe    402144 <urlencode+0x59>
  402136:	8d 42 bf             	lea    -0x41(%rdx),%eax
  402139:	3c 19                	cmp    $0x19,%al
  40213b:	76 07                	jbe    402144 <urlencode+0x59>
  40213d:	8d 42 9f             	lea    -0x61(%rdx),%eax
  402140:	3c 19                	cmp    $0x19,%al
  402142:	77 09                	ja     40214d <urlencode+0x62>
  402144:	88 55 00             	mov    %dl,0x0(%rbp)
  402147:	48 8d 6d 01          	lea    0x1(%rbp),%rbp
  40214b:	eb 51                	jmp    40219e <urlencode+0xb3>
  40214d:	80 fa 20             	cmp    $0x20,%dl
  402150:	75 0a                	jne    40215c <urlencode+0x71>
  402152:	c6 45 00 2b          	movb   $0x2b,0x0(%rbp)
  402156:	48 8d 6d 01          	lea    0x1(%rbp),%rbp
  40215a:	eb 42                	jmp    40219e <urlencode+0xb3>
  40215c:	8d 42 e0             	lea    -0x20(%rdx),%eax
  40215f:	3c 5f                	cmp    $0x5f,%al
  402161:	0f 96 c1             	setbe  %cl
  402164:	80 fa 09             	cmp    $0x9,%dl
  402167:	0f 94 c0             	sete   %al
  40216a:	08 c1                	or     %al,%cl
  40216c:	74 45                	je     4021b3 <urlencode+0xc8>
  40216e:	0f b6 d2             	movzbl %dl,%edx
  402171:	be 68 35 40 00       	mov    $0x403568,%esi
  402176:	48 89 e7             	mov    %rsp,%rdi
  402179:	b8 00 00 00 00       	mov    $0x0,%eax
  40217e:	e8 2d ec ff ff       	callq  400db0 <sprintf@plt>
  402183:	0f b6 04 24          	movzbl (%rsp),%eax
  402187:	88 45 00             	mov    %al,0x0(%rbp)
  40218a:	0f b6 44 24 01       	movzbl 0x1(%rsp),%eax
  40218f:	88 45 01             	mov    %al,0x1(%rbp)
  402192:	0f b6 44 24 02       	movzbl 0x2(%rsp),%eax
  402197:	88 45 02             	mov    %al,0x2(%rbp)
  40219a:	48 8d 6d 03          	lea    0x3(%rbp),%rbp
  40219e:	48 83 c3 01          	add    $0x1,%rbx
  4021a2:	44 89 e0             	mov    %r12d,%eax
  4021a5:	44 8d 60 ff          	lea    -0x1(%rax),%r12d
  4021a9:	85 c0                	test   %eax,%eax
  4021ab:	0f 85 61 ff ff ff    	jne    402112 <urlencode+0x27>
  4021b1:	eb 05                	jmp    4021b8 <urlencode+0xcd>
  4021b3:	b8 ff ff ff ff       	mov    $0xffffffff,%eax
  4021b8:	48 83 c4 10          	add    $0x10,%rsp
  4021bc:	5b                   	pop    %rbx
  4021bd:	5d                   	pop    %rbp
  4021be:	41 5c                	pop    %r12
  4021c0:	c3                   	retq   

00000000004021c1 <rio_writen>:
  4021c1:	41 55                	push   %r13
  4021c3:	41 54                	push   %r12
  4021c5:	55                   	push   %rbp
  4021c6:	53                   	push   %rbx
  4021c7:	48 83 ec 08          	sub    $0x8,%rsp
  4021cb:	41 89 fc             	mov    %edi,%r12d
  4021ce:	48 89 f5             	mov    %rsi,%rbp
  4021d1:	49 89 d5             	mov    %rdx,%r13
  4021d4:	48 89 d3             	mov    %rdx,%rbx
  4021d7:	eb 28                	jmp    402201 <rio_writen+0x40>
  4021d9:	48 89 da             	mov    %rbx,%rdx
  4021dc:	48 89 ee             	mov    %rbp,%rsi
  4021df:	44 89 e7             	mov    %r12d,%edi
  4021e2:	e8 59 ea ff ff       	callq  400c40 <write@plt>
  4021e7:	48 85 c0             	test   %rax,%rax
  4021ea:	7f 0f                	jg     4021fb <rio_writen+0x3a>
  4021ec:	e8 ff e9 ff ff       	callq  400bf0 <__errno_location@plt>
  4021f1:	83 38 04             	cmpl   $0x4,(%rax)
  4021f4:	75 15                	jne    40220b <rio_writen+0x4a>
  4021f6:	b8 00 00 00 00       	mov    $0x0,%eax
  4021fb:	48 29 c3             	sub    %rax,%rbx
  4021fe:	48 01 c5             	add    %rax,%rbp
  402201:	48 85 db             	test   %rbx,%rbx
  402204:	75 d3                	jne    4021d9 <rio_writen+0x18>
  402206:	4c 89 e8             	mov    %r13,%rax
  402209:	eb 07                	jmp    402212 <rio_writen+0x51>
  40220b:	48 c7 c0 ff ff ff ff 	mov    $0xffffffffffffffff,%rax
  402212:	48 83 c4 08          	add    $0x8,%rsp
  402216:	5b                   	pop    %rbx
  402217:	5d                   	pop    %rbp
  402218:	41 5c                	pop    %r12
  40221a:	41 5d                	pop    %r13
  40221c:	c3                   	retq   

000000000040221d <rio_read>:
  40221d:	41 56                	push   %r14
  40221f:	41 55                	push   %r13
  402221:	41 54                	push   %r12
  402223:	55                   	push   %rbp
  402224:	53                   	push   %rbx
  402225:	48 89 fb             	mov    %rdi,%rbx
  402228:	49 89 f6             	mov    %rsi,%r14
  40222b:	49 89 d5             	mov    %rdx,%r13
  40222e:	4c 8d 67 10          	lea    0x10(%rdi),%r12
  402232:	eb 2a                	jmp    40225e <rio_read+0x41>
  402234:	ba 00 20 00 00       	mov    $0x2000,%edx
  402239:	4c 89 e6             	mov    %r12,%rsi
  40223c:	8b 3b                	mov    (%rbx),%edi
  40223e:	e8 5d ea ff ff       	callq  400ca0 <read@plt>
  402243:	89 43 04             	mov    %eax,0x4(%rbx)
  402246:	85 c0                	test   %eax,%eax
  402248:	79 0c                	jns    402256 <rio_read+0x39>
  40224a:	e8 a1 e9 ff ff       	callq  400bf0 <__errno_location@plt>
  40224f:	83 38 04             	cmpl   $0x4,(%rax)
  402252:	74 0a                	je     40225e <rio_read+0x41>
  402254:	eb 37                	jmp    40228d <rio_read+0x70>
  402256:	85 c0                	test   %eax,%eax
  402258:	74 3c                	je     402296 <rio_read+0x79>
  40225a:	4c 89 63 08          	mov    %r12,0x8(%rbx)
  40225e:	8b 6b 04             	mov    0x4(%rbx),%ebp
  402261:	85 ed                	test   %ebp,%ebp
  402263:	7e cf                	jle    402234 <rio_read+0x17>
  402265:	89 e8                	mov    %ebp,%eax
  402267:	4c 39 e8             	cmp    %r13,%rax
  40226a:	72 03                	jb     40226f <rio_read+0x52>
  40226c:	44 89 ed             	mov    %r13d,%ebp
  40226f:	4c 63 e5             	movslq %ebp,%r12
  402272:	48 8b 73 08          	mov    0x8(%rbx),%rsi
  402276:	4c 89 e2             	mov    %r12,%rdx
  402279:	4c 89 f7             	mov    %r14,%rdi
  40227c:	e8 7f ea ff ff       	callq  400d00 <memcpy@plt>
  402281:	4c 01 63 08          	add    %r12,0x8(%rbx)
  402285:	29 6b 04             	sub    %ebp,0x4(%rbx)
  402288:	4c 89 e0             	mov    %r12,%rax
  40228b:	eb 0e                	jmp    40229b <rio_read+0x7e>
  40228d:	48 c7 c0 ff ff ff ff 	mov    $0xffffffffffffffff,%rax
  402294:	eb 05                	jmp    40229b <rio_read+0x7e>
  402296:	b8 00 00 00 00       	mov    $0x0,%eax
  40229b:	5b                   	pop    %rbx
  40229c:	5d                   	pop    %rbp
  40229d:	41 5c                	pop    %r12
  40229f:	41 5d                	pop    %r13
  4022a1:	41 5e                	pop    %r14
  4022a3:	c3                   	retq   

00000000004022a4 <rio_readlineb>:
  4022a4:	41 55                	push   %r13
  4022a6:	41 54                	push   %r12
  4022a8:	55                   	push   %rbp
  4022a9:	53                   	push   %rbx
  4022aa:	48 83 ec 18          	sub    $0x18,%rsp
  4022ae:	49 89 fd             	mov    %rdi,%r13
  4022b1:	48 89 f5             	mov    %rsi,%rbp
  4022b4:	49 89 d4             	mov    %rdx,%r12
  4022b7:	bb 01 00 00 00       	mov    $0x1,%ebx
  4022bc:	eb 3d                	jmp    4022fb <rio_readlineb+0x57>
  4022be:	ba 01 00 00 00       	mov    $0x1,%edx
  4022c3:	48 8d 74 24 0f       	lea    0xf(%rsp),%rsi
  4022c8:	4c 89 ef             	mov    %r13,%rdi
  4022cb:	e8 4d ff ff ff       	callq  40221d <rio_read>
  4022d0:	83 f8 01             	cmp    $0x1,%eax
  4022d3:	75 12                	jne    4022e7 <rio_readlineb+0x43>
  4022d5:	48 8d 55 01          	lea    0x1(%rbp),%rdx
  4022d9:	0f b6 44 24 0f       	movzbl 0xf(%rsp),%eax
  4022de:	88 45 00             	mov    %al,0x0(%rbp)
  4022e1:	3c 0a                	cmp    $0xa,%al
  4022e3:	75 0f                	jne    4022f4 <rio_readlineb+0x50>
  4022e5:	eb 1b                	jmp    402302 <rio_readlineb+0x5e>
  4022e7:	85 c0                	test   %eax,%eax
  4022e9:	75 23                	jne    40230e <rio_readlineb+0x6a>
  4022eb:	48 83 fb 01          	cmp    $0x1,%rbx
  4022ef:	90                   	nop
  4022f0:	75 13                	jne    402305 <rio_readlineb+0x61>
  4022f2:	eb 23                	jmp    402317 <rio_readlineb+0x73>
  4022f4:	48 83 c3 01          	add    $0x1,%rbx
  4022f8:	48 89 d5             	mov    %rdx,%rbp
  4022fb:	4c 39 e3             	cmp    %r12,%rbx
  4022fe:	72 be                	jb     4022be <rio_readlineb+0x1a>
  402300:	eb 03                	jmp    402305 <rio_readlineb+0x61>
  402302:	48 89 d5             	mov    %rdx,%rbp
  402305:	c6 45 00 00          	movb   $0x0,0x0(%rbp)
  402309:	48 89 d8             	mov    %rbx,%rax
  40230c:	eb 0e                	jmp    40231c <rio_readlineb+0x78>
  40230e:	48 c7 c0 ff ff ff ff 	mov    $0xffffffffffffffff,%rax
  402315:	eb 05                	jmp    40231c <rio_readlineb+0x78>
  402317:	b8 00 00 00 00       	mov    $0x0,%eax
  40231c:	48 83 c4 18          	add    $0x18,%rsp
  402320:	5b                   	pop    %rbx
  402321:	5d                   	pop    %rbp
  402322:	41 5c                	pop    %r12
  402324:	41 5d                	pop    %r13
  402326:	c3                   	retq   

0000000000402327 <submitr>:
  402327:	41 57                	push   %r15
  402329:	41 56                	push   %r14
  40232b:	41 55                	push   %r13
  40232d:	41 54                	push   %r12
  40232f:	55                   	push   %rbp
  402330:	53                   	push   %rbx
  402331:	48 81 ec 48 a0 00 00 	sub    $0xa048,%rsp
  402338:	49 89 fc             	mov    %rdi,%r12
  40233b:	89 74 24 04          	mov    %esi,0x4(%rsp)
  40233f:	49 89 d7             	mov    %rdx,%r15
  402342:	49 89 ce             	mov    %rcx,%r14
  402345:	4c 89 44 24 08       	mov    %r8,0x8(%rsp)
  40234a:	4d 89 cd             	mov    %r9,%r13
  40234d:	48 8b 9c 24 80 a0 00 	mov    0xa080(%rsp),%rbx
  402354:	00 
  402355:	c7 84 24 1c 20 00 00 	movl   $0x0,0x201c(%rsp)
  40235c:	00 00 00 00 
  402360:	ba 00 00 00 00       	mov    $0x0,%edx
  402365:	be 01 00 00 00       	mov    $0x1,%esi
  40236a:	bf 02 00 00 00       	mov    $0x2,%edi
  40236f:	e8 6c ea ff ff       	callq  400de0 <socket@plt>
  402374:	89 c5                	mov    %eax,%ebp
  402376:	85 c0                	test   %eax,%eax
  402378:	79 4e                	jns    4023c8 <submitr+0xa1>
  40237a:	48 b8 45 72 72 6f 72 	movabs $0x43203a726f727245,%rax
  402381:	3a 20 43 
  402384:	48 89 03             	mov    %rax,(%rbx)
  402387:	48 b8 6c 69 65 6e 74 	movabs $0x6e7520746e65696c,%rax
  40238e:	20 75 6e 
  402391:	48 89 43 08          	mov    %rax,0x8(%rbx)
  402395:	48 b8 61 62 6c 65 20 	movabs $0x206f7420656c6261,%rax
  40239c:	74 6f 20 
  40239f:	48 89 43 10          	mov    %rax,0x10(%rbx)
  4023a3:	48 b8 63 72 65 61 74 	movabs $0x7320657461657263,%rax
  4023aa:	65 20 73 
  4023ad:	48 89 43 18          	mov    %rax,0x18(%rbx)
  4023b1:	c7 43 20 6f 63 6b 65 	movl   $0x656b636f,0x20(%rbx)
  4023b8:	66 c7 43 24 74 00    	movw   $0x74,0x24(%rbx)
  4023be:	b8 ff ff ff ff       	mov    $0xffffffff,%eax
  4023c3:	e9 68 06 00 00       	jmpq   402a30 <submitr+0x709>
  4023c8:	4c 89 e7             	mov    %r12,%rdi
  4023cb:	e8 00 e9 ff ff       	callq  400cd0 <gethostbyname@plt>
  4023d0:	48 85 c0             	test   %rax,%rax
  4023d3:	75 67                	jne    40243c <submitr+0x115>
  4023d5:	48 b8 45 72 72 6f 72 	movabs $0x44203a726f727245,%rax
  4023dc:	3a 20 44 
  4023df:	48 89 03             	mov    %rax,(%rbx)
  4023e2:	48 b8 4e 53 20 69 73 	movabs $0x6e7520736920534e,%rax
  4023e9:	20 75 6e 
  4023ec:	48 89 43 08          	mov    %rax,0x8(%rbx)
  4023f0:	48 b8 61 62 6c 65 20 	movabs $0x206f7420656c6261,%rax
  4023f7:	74 6f 20 
  4023fa:	48 89 43 10          	mov    %rax,0x10(%rbx)
  4023fe:	48 b8 72 65 73 6f 6c 	movabs $0x2065766c6f736572,%rax
  402405:	76 65 20 
  402408:	48 89 43 18          	mov    %rax,0x18(%rbx)
  40240c:	48 b8 73 65 72 76 65 	movabs $0x6120726576726573,%rax
  402413:	72 20 61 
  402416:	48 89 43 20          	mov    %rax,0x20(%rbx)
  40241a:	c7 43 28 64 64 72 65 	movl   $0x65726464,0x28(%rbx)
  402421:	66 c7 43 2c 73 73    	movw   $0x7373,0x2c(%rbx)
  402427:	c6 43 2e 00          	movb   $0x0,0x2e(%rbx)
  40242b:	89 ef                	mov    %ebp,%edi
  40242d:	e8 5e e8 ff ff       	callq  400c90 <close@plt>
  402432:	b8 ff ff ff ff       	mov    $0xffffffff,%eax
  402437:	e9 f4 05 00 00       	jmpq   402a30 <submitr+0x709>
  40243c:	48 c7 84 24 30 a0 00 	movq   $0x0,0xa030(%rsp)
  402443:	00 00 00 00 00 
  402448:	48 c7 84 24 38 a0 00 	movq   $0x0,0xa038(%rsp)
  40244f:	00 00 00 00 00 
  402454:	66 c7 84 24 30 a0 00 	movw   $0x2,0xa030(%rsp)
  40245b:	00 02 00 
  40245e:	48 8b 48 18          	mov    0x18(%rax),%rcx
  402462:	48 63 50 14          	movslq 0x14(%rax),%rdx
  402466:	48 8d b4 24 34 a0 00 	lea    0xa034(%rsp),%rsi
  40246d:	00 
  40246e:	48 8b 39             	mov    (%rcx),%rdi
  402471:	e8 ea e8 ff ff       	callq  400d60 <bcopy@plt>
  402476:	0f b7 44 24 04       	movzwl 0x4(%rsp),%eax
  40247b:	66 c1 c8 08          	ror    $0x8,%ax
  40247f:	66 89 84 24 32 a0 00 	mov    %ax,0xa032(%rsp)
  402486:	00 
  402487:	ba 10 00 00 00       	mov    $0x10,%edx
  40248c:	48 8d b4 24 30 a0 00 	lea    0xa030(%rsp),%rsi
  402493:	00 
  402494:	89 ef                	mov    %ebp,%edi
  402496:	e8 35 e9 ff ff       	callq  400dd0 <connect@plt>
  40249b:	85 c0                	test   %eax,%eax
  40249d:	79 59                	jns    4024f8 <submitr+0x1d1>
  40249f:	48 b8 45 72 72 6f 72 	movabs $0x55203a726f727245,%rax
  4024a6:	3a 20 55 
  4024a9:	48 89 03             	mov    %rax,(%rbx)
  4024ac:	48 b8 6e 61 62 6c 65 	movabs $0x6f7420656c62616e,%rax
  4024b3:	20 74 6f 
  4024b6:	48 89 43 08          	mov    %rax,0x8(%rbx)
  4024ba:	48 b8 20 63 6f 6e 6e 	movabs $0x7463656e6e6f6320,%rax
  4024c1:	65 63 74 
  4024c4:	48 89 43 10          	mov    %rax,0x10(%rbx)
  4024c8:	48 b8 20 74 6f 20 74 	movabs $0x20656874206f7420,%rax
  4024cf:	68 65 20 
  4024d2:	48 89 43 18          	mov    %rax,0x18(%rbx)
  4024d6:	c7 43 20 73 65 72 76 	movl   $0x76726573,0x20(%rbx)
  4024dd:	66 c7 43 24 65 72    	movw   $0x7265,0x24(%rbx)
  4024e3:	c6 43 26 00          	movb   $0x0,0x26(%rbx)
  4024e7:	89 ef                	mov    %ebp,%edi
  4024e9:	e8 a2 e7 ff ff       	callq  400c90 <close@plt>
  4024ee:	b8 ff ff ff ff       	mov    $0xffffffff,%eax
  4024f3:	e9 38 05 00 00       	jmpq   402a30 <submitr+0x709>
  4024f8:	48 c7 c2 ff ff ff ff 	mov    $0xffffffffffffffff,%rdx
  4024ff:	4c 89 ef             	mov    %r13,%rdi
  402502:	b8 00 00 00 00       	mov    $0x0,%eax
  402507:	48 89 d1             	mov    %rdx,%rcx
  40250a:	f2 ae                	repnz scas %es:(%rdi),%al
  40250c:	48 f7 d1             	not    %rcx
  40250f:	48 89 ce             	mov    %rcx,%rsi
  402512:	4c 89 ff             	mov    %r15,%rdi
  402515:	48 89 d1             	mov    %rdx,%rcx
  402518:	f2 ae                	repnz scas %es:(%rdi),%al
  40251a:	48 f7 d1             	not    %rcx
  40251d:	49 89 c8             	mov    %rcx,%r8
  402520:	4c 89 f7             	mov    %r14,%rdi
  402523:	48 89 d1             	mov    %rdx,%rcx
  402526:	f2 ae                	repnz scas %es:(%rdi),%al
  402528:	49 29 c8             	sub    %rcx,%r8
  40252b:	48 8b 7c 24 08       	mov    0x8(%rsp),%rdi
  402530:	48 89 d1             	mov    %rdx,%rcx
  402533:	f2 ae                	repnz scas %es:(%rdi),%al
  402535:	49 29 c8             	sub    %rcx,%r8
  402538:	48 8d 44 76 fd       	lea    -0x3(%rsi,%rsi,2),%rax
  40253d:	49 8d 44 00 7b       	lea    0x7b(%r8,%rax,1),%rax
  402542:	48 3d 00 20 00 00    	cmp    $0x2000,%rax
  402548:	76 72                	jbe    4025bc <submitr+0x295>
  40254a:	48 b8 45 72 72 6f 72 	movabs $0x52203a726f727245,%rax
  402551:	3a 20 52 
  402554:	48 89 03             	mov    %rax,(%rbx)
  402557:	48 b8 65 73 75 6c 74 	movabs $0x747320746c757365,%rax
  40255e:	20 73 74 
  402561:	48 89 43 08          	mov    %rax,0x8(%rbx)
  402565:	48 b8 72 69 6e 67 20 	movabs $0x6f6f7420676e6972,%rax
  40256c:	74 6f 6f 
  40256f:	48 89 43 10          	mov    %rax,0x10(%rbx)
  402573:	48 b8 20 6c 61 72 67 	movabs $0x202e656772616c20,%rax
  40257a:	65 2e 20 
  40257d:	48 89 43 18          	mov    %rax,0x18(%rbx)
  402581:	48 b8 49 6e 63 72 65 	movabs $0x6573616572636e49,%rax
  402588:	61 73 65 
  40258b:	48 89 43 20          	mov    %rax,0x20(%rbx)
  40258f:	48 b8 20 53 55 42 4d 	movabs $0x5254494d42555320,%rax
  402596:	49 54 52 
  402599:	48 89 43 28          	mov    %rax,0x28(%rbx)
  40259d:	48 b8 5f 4d 41 58 42 	movabs $0x46554258414d5f,%rax
  4025a4:	55 46 00 
  4025a7:	48 89 43 30          	mov    %rax,0x30(%rbx)
  4025ab:	89 ef                	mov    %ebp,%edi
  4025ad:	e8 de e6 ff ff       	callq  400c90 <close@plt>
  4025b2:	b8 ff ff ff ff       	mov    $0xffffffff,%eax
  4025b7:	e9 74 04 00 00       	jmpq   402a30 <submitr+0x709>
  4025bc:	48 8d b4 24 20 40 00 	lea    0x4020(%rsp),%rsi
  4025c3:	00 
  4025c4:	b9 00 04 00 00       	mov    $0x400,%ecx
  4025c9:	b8 00 00 00 00       	mov    $0x0,%eax
  4025ce:	48 89 f7             	mov    %rsi,%rdi
  4025d1:	f3 48 ab             	rep stos %rax,%es:(%rdi)
  4025d4:	4c 89 ef             	mov    %r13,%rdi
  4025d7:	e8 0f fb ff ff       	callq  4020eb <urlencode>
  4025dc:	85 c0                	test   %eax,%eax
  4025de:	0f 89 8a 00 00 00    	jns    40266e <submitr+0x347>
  4025e4:	48 b8 45 72 72 6f 72 	movabs $0x52203a726f727245,%rax
  4025eb:	3a 20 52 
  4025ee:	48 89 03             	mov    %rax,(%rbx)
  4025f1:	48 b8 65 73 75 6c 74 	movabs $0x747320746c757365,%rax
  4025f8:	20 73 74 
  4025fb:	48 89 43 08          	mov    %rax,0x8(%rbx)
  4025ff:	48 b8 72 69 6e 67 20 	movabs $0x6e6f6320676e6972,%rax
  402606:	63 6f 6e 
  402609:	48 89 43 10          	mov    %rax,0x10(%rbx)
  40260d:	48 b8 74 61 69 6e 73 	movabs $0x6e6120736e696174,%rax
  402614:	20 61 6e 
  402617:	48 89 43 18          	mov    %rax,0x18(%rbx)
  40261b:	48 b8 20 69 6c 6c 65 	movabs $0x6c6167656c6c6920,%rax
  402622:	67 61 6c 
  402625:	48 89 43 20          	mov    %rax,0x20(%rbx)
  402629:	48 b8 20 6f 72 20 75 	movabs $0x72706e7520726f20,%rax
  402630:	6e 70 72 
  402633:	48 89 43 28          	mov    %rax,0x28(%rbx)
  402637:	48 b8 69 6e 74 61 62 	movabs $0x20656c6261746e69,%rax
  40263e:	6c 65 20 
  402641:	48 89 43 30          	mov    %rax,0x30(%rbx)
  402645:	48 b8 63 68 61 72 61 	movabs $0x6574636172616863,%rax
  40264c:	63 74 65 
  40264f:	48 89 43 38          	mov    %rax,0x38(%rbx)
  402653:	66 c7 43 40 72 2e    	movw   $0x2e72,0x40(%rbx)
  402659:	c6 43 42 00          	movb   $0x0,0x42(%rbx)
  40265d:	89 ef                	mov    %ebp,%edi
  40265f:	e8 2c e6 ff ff       	callq  400c90 <close@plt>
  402664:	b8 ff ff ff ff       	mov    $0xffffffff,%eax
  402669:	e9 c2 03 00 00       	jmpq   402a30 <submitr+0x709>
  40266e:	4d 89 e1             	mov    %r12,%r9
  402671:	4c 8d 84 24 20 40 00 	lea    0x4020(%rsp),%r8
  402678:	00 
  402679:	4c 89 f9             	mov    %r15,%rcx
  40267c:	4c 89 f2             	mov    %r14,%rdx
  40267f:	be f8 34 40 00       	mov    $0x4034f8,%esi
  402684:	48 8d bc 24 20 60 00 	lea    0x6020(%rsp),%rdi
  40268b:	00 
  40268c:	b8 00 00 00 00       	mov    $0x0,%eax
  402691:	e8 1a e7 ff ff       	callq  400db0 <sprintf@plt>
  402696:	48 8d bc 24 20 60 00 	lea    0x6020(%rsp),%rdi
  40269d:	00 
  40269e:	b8 00 00 00 00       	mov    $0x0,%eax
  4026a3:	48 c7 c1 ff ff ff ff 	mov    $0xffffffffffffffff,%rcx
  4026aa:	f2 ae                	repnz scas %es:(%rdi),%al
  4026ac:	48 f7 d1             	not    %rcx
  4026af:	48 8d 51 ff          	lea    -0x1(%rcx),%rdx
  4026b3:	48 8d b4 24 20 60 00 	lea    0x6020(%rsp),%rsi
  4026ba:	00 
  4026bb:	89 ef                	mov    %ebp,%edi
  4026bd:	e8 ff fa ff ff       	callq  4021c1 <rio_writen>
  4026c2:	48 85 c0             	test   %rax,%rax
  4026c5:	79 6e                	jns    402735 <submitr+0x40e>
  4026c7:	48 b8 45 72 72 6f 72 	movabs $0x43203a726f727245,%rax
  4026ce:	3a 20 43 
  4026d1:	48 89 03             	mov    %rax,(%rbx)
  4026d4:	48 b8 6c 69 65 6e 74 	movabs $0x6e7520746e65696c,%rax
  4026db:	20 75 6e 
  4026de:	48 89 43 08          	mov    %rax,0x8(%rbx)
  4026e2:	48 b8 61 62 6c 65 20 	movabs $0x206f7420656c6261,%rax
  4026e9:	74 6f 20 
  4026ec:	48 89 43 10          	mov    %rax,0x10(%rbx)
  4026f0:	48 b8 77 72 69 74 65 	movabs $0x6f74206574697277,%rax
  4026f7:	20 74 6f 
  4026fa:	48 89 43 18          	mov    %rax,0x18(%rbx)
  4026fe:	48 b8 20 74 68 65 20 	movabs $0x7365722065687420,%rax
  402705:	72 65 73 
  402708:	48 89 43 20          	mov    %rax,0x20(%rbx)
  40270c:	48 b8 75 6c 74 20 73 	movabs $0x7672657320746c75,%rax
  402713:	65 72 76 
  402716:	48 89 43 28          	mov    %rax,0x28(%rbx)
  40271a:	66 c7 43 30 65 72    	movw   $0x7265,0x30(%rbx)
  402720:	c6 43 32 00          	movb   $0x0,0x32(%rbx)
  402724:	89 ef                	mov    %ebp,%edi
  402726:	e8 65 e5 ff ff       	callq  400c90 <close@plt>
  40272b:	b8 ff ff ff ff       	mov    $0xffffffff,%eax
  402730:	e9 fb 02 00 00       	jmpq   402a30 <submitr+0x709>
  402735:	89 ee                	mov    %ebp,%esi
  402737:	48 8d bc 24 20 80 00 	lea    0x8020(%rsp),%rdi
  40273e:	00 
  40273f:	e8 6c f9 ff ff       	callq  4020b0 <rio_readinitb>
  402744:	ba 00 20 00 00       	mov    $0x2000,%edx
  402749:	48 8d b4 24 20 60 00 	lea    0x6020(%rsp),%rsi
  402750:	00 
  402751:	48 8d bc 24 20 80 00 	lea    0x8020(%rsp),%rdi
  402758:	00 
  402759:	e8 46 fb ff ff       	callq  4022a4 <rio_readlineb>
  40275e:	48 85 c0             	test   %rax,%rax
  402761:	7f 7d                	jg     4027e0 <submitr+0x4b9>
  402763:	48 b8 45 72 72 6f 72 	movabs $0x43203a726f727245,%rax
  40276a:	3a 20 43 
  40276d:	48 89 03             	mov    %rax,(%rbx)
  402770:	48 b8 6c 69 65 6e 74 	movabs $0x6e7520746e65696c,%rax
  402777:	20 75 6e 
  40277a:	48 89 43 08          	mov    %rax,0x8(%rbx)
  40277e:	48 b8 61 62 6c 65 20 	movabs $0x206f7420656c6261,%rax
  402785:	74 6f 20 
  402788:	48 89 43 10          	mov    %rax,0x10(%rbx)
  40278c:	48 b8 72 65 61 64 20 	movabs $0x7269662064616572,%rax
  402793:	66 69 72 
  402796:	48 89 43 18          	mov    %rax,0x18(%rbx)
  40279a:	48 b8 73 74 20 68 65 	movabs $0x6564616568207473,%rax
  4027a1:	61 64 65 
  4027a4:	48 89 43 20          	mov    %rax,0x20(%rbx)
  4027a8:	48 b8 72 20 66 72 6f 	movabs $0x72206d6f72662072,%rax
  4027af:	6d 20 72 
  4027b2:	48 89 43 28          	mov    %rax,0x28(%rbx)
  4027b6:	48 b8 65 73 75 6c 74 	movabs $0x657320746c757365,%rax
  4027bd:	20 73 65 
  4027c0:	48 89 43 30          	mov    %rax,0x30(%rbx)
  4027c4:	c7 43 38 72 76 65 72 	movl   $0x72657672,0x38(%rbx)
  4027cb:	c6 43 3c 00          	movb   $0x0,0x3c(%rbx)
  4027cf:	89 ef                	mov    %ebp,%edi
  4027d1:	e8 ba e4 ff ff       	callq  400c90 <close@plt>
  4027d6:	b8 ff ff ff ff       	mov    $0xffffffff,%eax
  4027db:	e9 50 02 00 00       	jmpq   402a30 <submitr+0x709>
  4027e0:	4c 8d 44 24 10       	lea    0x10(%rsp),%r8
  4027e5:	48 8d 8c 24 1c 20 00 	lea    0x201c(%rsp),%rcx
  4027ec:	00 
  4027ed:	48 8d 94 24 20 20 00 	lea    0x2020(%rsp),%rdx
  4027f4:	00 
  4027f5:	be 6f 35 40 00       	mov    $0x40356f,%esi
  4027fa:	48 8d bc 24 20 60 00 	lea    0x6020(%rsp),%rdi
  402801:	00 
  402802:	b8 00 00 00 00       	mov    $0x0,%eax
  402807:	e8 34 e5 ff ff       	callq  400d40 <__isoc99_sscanf@plt>
  40280c:	e9 98 00 00 00       	jmpq   4028a9 <submitr+0x582>
  402811:	ba 00 20 00 00       	mov    $0x2000,%edx
  402816:	48 8d b4 24 20 60 00 	lea    0x6020(%rsp),%rsi
  40281d:	00 
  40281e:	48 8d bc 24 20 80 00 	lea    0x8020(%rsp),%rdi
  402825:	00 
  402826:	e8 79 fa ff ff       	callq  4022a4 <rio_readlineb>
  40282b:	48 85 c0             	test   %rax,%rax
  40282e:	7f 79                	jg     4028a9 <submitr+0x582>
  402830:	48 b8 45 72 72 6f 72 	movabs $0x43203a726f727245,%rax
  402837:	3a 20 43 
  40283a:	48 89 03             	mov    %rax,(%rbx)
  40283d:	48 b8 6c 69 65 6e 74 	movabs $0x6e7520746e65696c,%rax
  402844:	20 75 6e 
  402847:	48 89 43 08          	mov    %rax,0x8(%rbx)
  40284b:	48 b8 61 62 6c 65 20 	movabs $0x206f7420656c6261,%rax
  402852:	74 6f 20 
  402855:	48 89 43 10          	mov    %rax,0x10(%rbx)
  402859:	48 b8 72 65 61 64 20 	movabs $0x6165682064616572,%rax
  402860:	68 65 61 
  402863:	48 89 43 18          	mov    %rax,0x18(%rbx)
  402867:	48 b8 64 65 72 73 20 	movabs $0x6f72662073726564,%rax
  40286e:	66 72 6f 
  402871:	48 89 43 20          	mov    %rax,0x20(%rbx)
  402875:	48 b8 6d 20 74 68 65 	movabs $0x657220656874206d,%rax
  40287c:	20 72 65 
  40287f:	48 89 43 28          	mov    %rax,0x28(%rbx)
  402883:	48 b8 73 75 6c 74 20 	movabs $0x72657320746c7573,%rax
  40288a:	73 65 72 
  40288d:	48 89 43 30          	mov    %rax,0x30(%rbx)
  402891:	c7 43 38 76 65 72 00 	movl   $0x726576,0x38(%rbx)
  402898:	89 ef                	mov    %ebp,%edi
  40289a:	e8 f1 e3 ff ff       	callq  400c90 <close@plt>
  40289f:	b8 ff ff ff ff       	mov    $0xffffffff,%eax
  4028a4:	e9 87 01 00 00       	jmpq   402a30 <submitr+0x709>
  4028a9:	0f b6 84 24 20 60 00 	movzbl 0x6020(%rsp),%eax
  4028b0:	00 
  4028b1:	83 e8 0d             	sub    $0xd,%eax
  4028b4:	75 15                	jne    4028cb <submitr+0x5a4>
  4028b6:	0f b6 84 24 21 60 00 	movzbl 0x6021(%rsp),%eax
  4028bd:	00 
  4028be:	83 e8 0a             	sub    $0xa,%eax
  4028c1:	75 08                	jne    4028cb <submitr+0x5a4>
  4028c3:	0f b6 84 24 22 60 00 	movzbl 0x6022(%rsp),%eax
  4028ca:	00 
  4028cb:	85 c0                	test   %eax,%eax
  4028cd:	0f 85 3e ff ff ff    	jne    402811 <submitr+0x4ea>
  4028d3:	ba 00 20 00 00       	mov    $0x2000,%edx
  4028d8:	48 8d b4 24 20 60 00 	lea    0x6020(%rsp),%rsi
  4028df:	00 
  4028e0:	48 8d bc 24 20 80 00 	lea    0x8020(%rsp),%rdi
  4028e7:	00 
  4028e8:	e8 b7 f9 ff ff       	callq  4022a4 <rio_readlineb>
  4028ed:	48 85 c0             	test   %rax,%rax
  4028f0:	0f 8f 83 00 00 00    	jg     402979 <submitr+0x652>
  4028f6:	48 b8 45 72 72 6f 72 	movabs $0x43203a726f727245,%rax
  4028fd:	3a 20 43 
  402900:	48 89 03             	mov    %rax,(%rbx)
  402903:	48 b8 6c 69 65 6e 74 	movabs $0x6e7520746e65696c,%rax
  40290a:	20 75 6e 
  40290d:	48 89 43 08          	mov    %rax,0x8(%rbx)
  402911:	48 b8 61 62 6c 65 20 	movabs $0x206f7420656c6261,%rax
  402918:	74 6f 20 
  40291b:	48 89 43 10          	mov    %rax,0x10(%rbx)
  40291f:	48 b8 72 65 61 64 20 	movabs $0x6174732064616572,%rax
  402926:	73 74 61 
  402929:	48 89 43 18          	mov    %rax,0x18(%rbx)
  40292d:	48 b8 74 75 73 20 6d 	movabs $0x7373656d20737574,%rax
  402934:	65 73 73 
  402937:	48 89 43 20          	mov    %rax,0x20(%rbx)
  40293b:	48 b8 61 67 65 20 66 	movabs $0x6d6f726620656761,%rax
  402942:	72 6f 6d 
  402945:	48 89 43 28          	mov    %rax,0x28(%rbx)
  402949:	48 b8 20 72 65 73 75 	movabs $0x20746c7573657220,%rax
  402950:	6c 74 20 
  402953:	48 89 43 30          	mov    %rax,0x30(%rbx)
  402957:	c7 43 38 73 65 72 76 	movl   $0x76726573,0x38(%rbx)
  40295e:	66 c7 43 3c 65 72    	movw   $0x7265,0x3c(%rbx)
  402964:	c6 43 3e 00          	movb   $0x0,0x3e(%rbx)
  402968:	89 ef                	mov    %ebp,%edi
  40296a:	e8 21 e3 ff ff       	callq  400c90 <close@plt>
  40296f:	b8 ff ff ff ff       	mov    $0xffffffff,%eax
  402974:	e9 b7 00 00 00       	jmpq   402a30 <submitr+0x709>
  402979:	8b 94 24 1c 20 00 00 	mov    0x201c(%rsp),%edx
  402980:	81 fa c8 00 00 00    	cmp    $0xc8,%edx
  402986:	74 28                	je     4029b0 <submitr+0x689>
  402988:	48 8d 4c 24 10       	lea    0x10(%rsp),%rcx
  40298d:	be 38 35 40 00       	mov    $0x403538,%esi
  402992:	48 89 df             	mov    %rbx,%rdi
  402995:	b8 00 00 00 00       	mov    $0x0,%eax
  40299a:	e8 11 e4 ff ff       	callq  400db0 <sprintf@plt>
  40299f:	89 ef                	mov    %ebp,%edi
  4029a1:	e8 ea e2 ff ff       	callq  400c90 <close@plt>
  4029a6:	b8 ff ff ff ff       	mov    $0xffffffff,%eax
  4029ab:	e9 80 00 00 00       	jmpq   402a30 <submitr+0x709>
  4029b0:	48 8d b4 24 20 60 00 	lea    0x6020(%rsp),%rsi
  4029b7:	00 
  4029b8:	48 89 df             	mov    %rbx,%rdi
  4029bb:	e8 60 e2 ff ff       	callq  400c20 <strcpy@plt>
  4029c0:	89 ef                	mov    %ebp,%edi
  4029c2:	e8 c9 e2 ff ff       	callq  400c90 <close@plt>
  4029c7:	0f b6 03             	movzbl (%rbx),%eax
  4029ca:	83 e8 4f             	sub    $0x4f,%eax
  4029cd:	75 18                	jne    4029e7 <submitr+0x6c0>
  4029cf:	0f b6 53 01          	movzbl 0x1(%rbx),%edx
  4029d3:	83 ea 4b             	sub    $0x4b,%edx
  4029d6:	75 11                	jne    4029e9 <submitr+0x6c2>
  4029d8:	0f b6 53 02          	movzbl 0x2(%rbx),%edx
  4029dc:	83 ea 0a             	sub    $0xa,%edx
  4029df:	75 08                	jne    4029e9 <submitr+0x6c2>
  4029e1:	0f b6 53 03          	movzbl 0x3(%rbx),%edx
  4029e5:	eb 02                	jmp    4029e9 <submitr+0x6c2>
  4029e7:	89 c2                	mov    %eax,%edx
  4029e9:	85 d2                	test   %edx,%edx
  4029eb:	74 30                	je     402a1d <submitr+0x6f6>
  4029ed:	bf 80 35 40 00       	mov    $0x403580,%edi
  4029f2:	b9 05 00 00 00       	mov    $0x5,%ecx
  4029f7:	48 89 de             	mov    %rbx,%rsi
  4029fa:	f3 a6                	repz cmpsb %es:(%rdi),%ds:(%rsi)
  4029fc:	0f 97 c1             	seta   %cl
  4029ff:	0f 92 c2             	setb   %dl
  402a02:	38 d1                	cmp    %dl,%cl
  402a04:	74 1e                	je     402a24 <submitr+0x6fd>
  402a06:	85 c0                	test   %eax,%eax
  402a08:	75 0d                	jne    402a17 <submitr+0x6f0>
  402a0a:	0f b6 43 01          	movzbl 0x1(%rbx),%eax
  402a0e:	83 e8 4b             	sub    $0x4b,%eax
  402a11:	75 04                	jne    402a17 <submitr+0x6f0>
  402a13:	0f b6 43 02          	movzbl 0x2(%rbx),%eax
  402a17:	85 c0                	test   %eax,%eax
  402a19:	75 10                	jne    402a2b <submitr+0x704>
  402a1b:	eb 13                	jmp    402a30 <submitr+0x709>
  402a1d:	b8 00 00 00 00       	mov    $0x0,%eax
  402a22:	eb 0c                	jmp    402a30 <submitr+0x709>
  402a24:	b8 00 00 00 00       	mov    $0x0,%eax
  402a29:	eb 05                	jmp    402a30 <submitr+0x709>
  402a2b:	b8 ff ff ff ff       	mov    $0xffffffff,%eax
  402a30:	48 81 c4 48 a0 00 00 	add    $0xa048,%rsp
  402a37:	5b                   	pop    %rbx
  402a38:	5d                   	pop    %rbp
  402a39:	41 5c                	pop    %r12
  402a3b:	41 5d                	pop    %r13
  402a3d:	41 5e                	pop    %r14
  402a3f:	41 5f                	pop    %r15
  402a41:	c3                   	retq   

0000000000402a42 <init_timeout>:
  402a42:	53                   	push   %rbx
  402a43:	89 fb                	mov    %edi,%ebx
  402a45:	85 ff                	test   %edi,%edi
  402a47:	74 1f                	je     402a68 <init_timeout+0x26>
  402a49:	85 ff                	test   %edi,%edi
  402a4b:	79 05                	jns    402a52 <init_timeout+0x10>
  402a4d:	bb 00 00 00 00       	mov    $0x0,%ebx
  402a52:	be c2 20 40 00       	mov    $0x4020c2,%esi
  402a57:	bf 0e 00 00 00       	mov    $0xe,%edi
  402a5c:	e8 5f e2 ff ff       	callq  400cc0 <signal@plt>
  402a61:	89 df                	mov    %ebx,%edi
  402a63:	e8 18 e2 ff ff       	callq  400c80 <alarm@plt>
  402a68:	5b                   	pop    %rbx
  402a69:	c3                   	retq   

0000000000402a6a <init_driver>:
  402a6a:	55                   	push   %rbp
  402a6b:	53                   	push   %rbx
  402a6c:	48 83 ec 18          	sub    $0x18,%rsp
  402a70:	48 89 fd             	mov    %rdi,%rbp
  402a73:	be 01 00 00 00       	mov    $0x1,%esi
  402a78:	bf 0d 00 00 00       	mov    $0xd,%edi
  402a7d:	e8 3e e2 ff ff       	callq  400cc0 <signal@plt>
  402a82:	be 01 00 00 00       	mov    $0x1,%esi
  402a87:	bf 1d 00 00 00       	mov    $0x1d,%edi
  402a8c:	e8 2f e2 ff ff       	callq  400cc0 <signal@plt>
  402a91:	be 01 00 00 00       	mov    $0x1,%esi
  402a96:	bf 1d 00 00 00       	mov    $0x1d,%edi
  402a9b:	e8 20 e2 ff ff       	callq  400cc0 <signal@plt>
  402aa0:	ba 00 00 00 00       	mov    $0x0,%edx
  402aa5:	be 01 00 00 00       	mov    $0x1,%esi
  402aaa:	bf 02 00 00 00       	mov    $0x2,%edi
  402aaf:	e8 2c e3 ff ff       	callq  400de0 <socket@plt>
  402ab4:	89 c3                	mov    %eax,%ebx
  402ab6:	85 c0                	test   %eax,%eax
  402ab8:	79 4f                	jns    402b09 <init_driver+0x9f>
  402aba:	48 b8 45 72 72 6f 72 	movabs $0x43203a726f727245,%rax
  402ac1:	3a 20 43 
  402ac4:	48 89 45 00          	mov    %rax,0x0(%rbp)
  402ac8:	48 b8 6c 69 65 6e 74 	movabs $0x6e7520746e65696c,%rax
  402acf:	20 75 6e 
  402ad2:	48 89 45 08          	mov    %rax,0x8(%rbp)
  402ad6:	48 b8 61 62 6c 65 20 	movabs $0x206f7420656c6261,%rax
  402add:	74 6f 20 
  402ae0:	48 89 45 10          	mov    %rax,0x10(%rbp)
  402ae4:	48 b8 63 72 65 61 74 	movabs $0x7320657461657263,%rax
  402aeb:	65 20 73 
  402aee:	48 89 45 18          	mov    %rax,0x18(%rbp)
  402af2:	c7 45 20 6f 63 6b 65 	movl   $0x656b636f,0x20(%rbp)
  402af9:	66 c7 45 24 74 00    	movw   $0x74,0x24(%rbp)
  402aff:	b8 ff ff ff ff       	mov    $0xffffffff,%eax
  402b04:	e9 23 01 00 00       	jmpq   402c2c <init_driver+0x1c2>
  402b09:	bf 85 35 40 00       	mov    $0x403585,%edi
  402b0e:	e8 bd e1 ff ff       	callq  400cd0 <gethostbyname@plt>
  402b13:	48 85 c0             	test   %rax,%rax
  402b16:	75 68                	jne    402b80 <init_driver+0x116>
  402b18:	48 b8 45 72 72 6f 72 	movabs $0x44203a726f727245,%rax
  402b1f:	3a 20 44 
  402b22:	48 89 45 00          	mov    %rax,0x0(%rbp)
  402b26:	48 b8 4e 53 20 69 73 	movabs $0x6e7520736920534e,%rax
  402b2d:	20 75 6e 
  402b30:	48 89 45 08          	mov    %rax,0x8(%rbp)
  402b34:	48 b8 61 62 6c 65 20 	movabs $0x206f7420656c6261,%rax
  402b3b:	74 6f 20 
  402b3e:	48 89 45 10          	mov    %rax,0x10(%rbp)
  402b42:	48 b8 72 65 73 6f 6c 	movabs $0x2065766c6f736572,%rax
  402b49:	76 65 20 
  402b4c:	48 89 45 18          	mov    %rax,0x18(%rbp)
  402b50:	48 b8 73 65 72 76 65 	movabs $0x6120726576726573,%rax
  402b57:	72 20 61 
  402b5a:	48 89 45 20          	mov    %rax,0x20(%rbp)
  402b5e:	c7 45 28 64 64 72 65 	movl   $0x65726464,0x28(%rbp)
  402b65:	66 c7 45 2c 73 73    	movw   $0x7373,0x2c(%rbp)
  402b6b:	c6 45 2e 00          	movb   $0x0,0x2e(%rbp)
  402b6f:	89 df                	mov    %ebx,%edi
  402b71:	e8 1a e1 ff ff       	callq  400c90 <close@plt>
  402b76:	b8 ff ff ff ff       	mov    $0xffffffff,%eax
  402b7b:	e9 ac 00 00 00       	jmpq   402c2c <init_driver+0x1c2>
  402b80:	48 c7 04 24 00 00 00 	movq   $0x0,(%rsp)
  402b87:	00 
  402b88:	48 c7 44 24 08 00 00 	movq   $0x0,0x8(%rsp)
  402b8f:	00 00 
  402b91:	66 c7 04 24 02 00    	movw   $0x2,(%rsp)
  402b97:	48 8b 48 18          	mov    0x18(%rax),%rcx
  402b9b:	48 63 50 14          	movslq 0x14(%rax),%rdx
  402b9f:	48 8d 74 24 04       	lea    0x4(%rsp),%rsi
  402ba4:	48 8b 39             	mov    (%rcx),%rdi
  402ba7:	e8 b4 e1 ff ff       	callq  400d60 <bcopy@plt>
  402bac:	66 c7 44 24 02 3c 9a 	movw   $0x9a3c,0x2(%rsp)
  402bb3:	ba 10 00 00 00       	mov    $0x10,%edx
  402bb8:	48 89 e6             	mov    %rsp,%rsi
  402bbb:	89 df                	mov    %ebx,%edi
  402bbd:	e8 0e e2 ff ff       	callq  400dd0 <connect@plt>
  402bc2:	85 c0                	test   %eax,%eax
  402bc4:	79 50                	jns    402c16 <init_driver+0x1ac>
  402bc6:	48 b8 45 72 72 6f 72 	movabs $0x55203a726f727245,%rax
  402bcd:	3a 20 55 
  402bd0:	48 89 45 00          	mov    %rax,0x0(%rbp)
  402bd4:	48 b8 6e 61 62 6c 65 	movabs $0x6f7420656c62616e,%rax
  402bdb:	20 74 6f 
  402bde:	48 89 45 08          	mov    %rax,0x8(%rbp)
  402be2:	48 b8 20 63 6f 6e 6e 	movabs $0x7463656e6e6f6320,%rax
  402be9:	65 63 74 
  402bec:	48 89 45 10          	mov    %rax,0x10(%rbp)
  402bf0:	48 b8 20 74 6f 20 73 	movabs $0x76726573206f7420,%rax
  402bf7:	65 72 76 
  402bfa:	48 89 45 18          	mov    %rax,0x18(%rbp)
  402bfe:	66 c7 45 20 65 72    	movw   $0x7265,0x20(%rbp)
  402c04:	c6 45 22 00          	movb   $0x0,0x22(%rbp)
  402c08:	89 df                	mov    %ebx,%edi
  402c0a:	e8 81 e0 ff ff       	callq  400c90 <close@plt>
  402c0f:	b8 ff ff ff ff       	mov    $0xffffffff,%eax
  402c14:	eb 16                	jmp    402c2c <init_driver+0x1c2>
  402c16:	89 df                	mov    %ebx,%edi
  402c18:	e8 73 e0 ff ff       	callq  400c90 <close@plt>
  402c1d:	66 c7 45 00 4f 4b    	movw   $0x4b4f,0x0(%rbp)
  402c23:	c6 45 02 00          	movb   $0x0,0x2(%rbp)
  402c27:	b8 00 00 00 00       	mov    $0x0,%eax
  402c2c:	48 83 c4 18          	add    $0x18,%rsp
  402c30:	5b                   	pop    %rbx
  402c31:	5d                   	pop    %rbp
  402c32:	c3                   	retq   

0000000000402c33 <driver_post>:
  402c33:	53                   	push   %rbx
  402c34:	48 83 ec 10          	sub    $0x10,%rsp
  402c38:	4c 89 cb             	mov    %r9,%rbx
  402c3b:	45 85 c0             	test   %r8d,%r8d
  402c3e:	74 22                	je     402c62 <driver_post+0x2f>
  402c40:	48 89 ce             	mov    %rcx,%rsi
  402c43:	bf 9d 35 40 00       	mov    $0x40359d,%edi
  402c48:	b8 00 00 00 00       	mov    $0x0,%eax
  402c4d:	e8 0e e0 ff ff       	callq  400c60 <printf@plt>
  402c52:	66 c7 03 4f 4b       	movw   $0x4b4f,(%rbx)
  402c57:	c6 43 02 00          	movb   $0x0,0x2(%rbx)
  402c5b:	b8 00 00 00 00       	mov    $0x0,%eax
  402c60:	eb 39                	jmp    402c9b <driver_post+0x68>
  402c62:	48 85 ff             	test   %rdi,%rdi
  402c65:	74 26                	je     402c8d <driver_post+0x5a>
  402c67:	80 3f 00             	cmpb   $0x0,(%rdi)
  402c6a:	74 21                	je     402c8d <driver_post+0x5a>
  402c6c:	4c 89 0c 24          	mov    %r9,(%rsp)
  402c70:	49 89 c9             	mov    %rcx,%r9
  402c73:	49 89 d0             	mov    %rdx,%r8
  402c76:	48 89 f9             	mov    %rdi,%rcx
  402c79:	48 89 f2             	mov    %rsi,%rdx
  402c7c:	be 9a 3c 00 00       	mov    $0x3c9a,%esi
  402c81:	bf 85 35 40 00       	mov    $0x403585,%edi
  402c86:	e8 9c f6 ff ff       	callq  402327 <submitr>
  402c8b:	eb 0e                	jmp    402c9b <driver_post+0x68>
  402c8d:	66 c7 03 4f 4b       	movw   $0x4b4f,(%rbx)
  402c92:	c6 43 02 00          	movb   $0x0,0x2(%rbx)
  402c96:	b8 00 00 00 00       	mov    $0x0,%eax
  402c9b:	48 83 c4 10          	add    $0x10,%rsp
  402c9f:	5b                   	pop    %rbx
  402ca0:	c3                   	retq   

0000000000402ca1 <check>:
  402ca1:	89 f8                	mov    %edi,%eax
  402ca3:	c1 e8 1c             	shr    $0x1c,%eax
  402ca6:	85 c0                	test   %eax,%eax
  402ca8:	74 1d                	je     402cc7 <check+0x26>
  402caa:	b9 00 00 00 00       	mov    $0x0,%ecx
  402caf:	eb 0b                	jmp    402cbc <check+0x1b>
  402cb1:	89 f8                	mov    %edi,%eax
  402cb3:	d3 e8                	shr    %cl,%eax
  402cb5:	3c 0a                	cmp    $0xa,%al
  402cb7:	74 14                	je     402ccd <check+0x2c>
  402cb9:	83 c1 08             	add    $0x8,%ecx
  402cbc:	83 f9 1f             	cmp    $0x1f,%ecx
  402cbf:	7e f0                	jle    402cb1 <check+0x10>
  402cc1:	b8 01 00 00 00       	mov    $0x1,%eax
  402cc6:	c3                   	retq   
  402cc7:	b8 00 00 00 00       	mov    $0x0,%eax
  402ccc:	c3                   	retq   
  402ccd:	b8 00 00 00 00       	mov    $0x0,%eax
  402cd2:	c3                   	retq   

0000000000402cd3 <gencookie>:
  402cd3:	53                   	push   %rbx
  402cd4:	83 c7 01             	add    $0x1,%edi
  402cd7:	e8 24 df ff ff       	callq  400c00 <srandom@plt>
  402cdc:	e8 3f e0 ff ff       	callq  400d20 <random@plt>
  402ce1:	89 c3                	mov    %eax,%ebx
  402ce3:	89 c7                	mov    %eax,%edi
  402ce5:	e8 b7 ff ff ff       	callq  402ca1 <check>
  402cea:	85 c0                	test   %eax,%eax
  402cec:	74 ee                	je     402cdc <gencookie+0x9>
  402cee:	89 d8                	mov    %ebx,%eax
  402cf0:	5b                   	pop    %rbx
  402cf1:	c3                   	retq   
  402cf2:	66 2e 0f 1f 84 00 00 	nopw   %cs:0x0(%rax,%rax,1)
  402cf9:	00 00 00 
  402cfc:	0f 1f 40 00          	nopl   0x0(%rax)

0000000000402d00 <__libc_csu_init>:
  402d00:	41 57                	push   %r15
  402d02:	41 89 ff             	mov    %edi,%r15d
  402d05:	41 56                	push   %r14
  402d07:	49 89 f6             	mov    %rsi,%r14
  402d0a:	41 55                	push   %r13
  402d0c:	49 89 d5             	mov    %rdx,%r13
  402d0f:	41 54                	push   %r12
  402d11:	4c 8d 25 f8 20 20 00 	lea    0x2020f8(%rip),%r12        # 604e10 <__frame_dummy_init_array_entry>
  402d18:	55                   	push   %rbp
  402d19:	48 8d 2d f8 20 20 00 	lea    0x2020f8(%rip),%rbp        # 604e18 <__init_array_end>
  402d20:	53                   	push   %rbx
  402d21:	4c 29 e5             	sub    %r12,%rbp
  402d24:	31 db                	xor    %ebx,%ebx
  402d26:	48 c1 fd 03          	sar    $0x3,%rbp
  402d2a:	48 83 ec 08          	sub    $0x8,%rsp
  402d2e:	e8 7d de ff ff       	callq  400bb0 <_init>
  402d33:	48 85 ed             	test   %rbp,%rbp
  402d36:	74 1e                	je     402d56 <__libc_csu_init+0x56>
  402d38:	0f 1f 84 00 00 00 00 	nopl   0x0(%rax,%rax,1)
  402d3f:	00 
  402d40:	4c 89 ea             	mov    %r13,%rdx
  402d43:	4c 89 f6             	mov    %r14,%rsi
  402d46:	44 89 ff             	mov    %r15d,%edi
  402d49:	41 ff 14 dc          	callq  *(%r12,%rbx,8)
  402d4d:	48 83 c3 01          	add    $0x1,%rbx
  402d51:	48 39 eb             	cmp    %rbp,%rbx
  402d54:	75 ea                	jne    402d40 <__libc_csu_init+0x40>
  402d56:	48 83 c4 08          	add    $0x8,%rsp
  402d5a:	5b                   	pop    %rbx
  402d5b:	5d                   	pop    %rbp
  402d5c:	41 5c                	pop    %r12
  402d5e:	41 5d                	pop    %r13
  402d60:	41 5e                	pop    %r14
  402d62:	41 5f                	pop    %r15
  402d64:	c3                   	retq   
  402d65:	90                   	nop
  402d66:	66 2e 0f 1f 84 00 00 	nopw   %cs:0x0(%rax,%rax,1)
  402d6d:	00 00 00 

0000000000402d70 <__libc_csu_fini>:
  402d70:	f3 c3                	repz retq 

Disassembly of section .fini:

0000000000402d74 <_fini>:
  402d74:	48 83 ec 08          	sub    $0x8,%rsp
  402d78:	48 83 c4 08          	add    $0x8,%rsp
  402d7c:	c3                   	retq   
